(lp0
(lp1
(dp2
S'n_squares'
p3
I2
sS'program_size'
p4
I8
sS'ce_size'
p5
I1024
sS'lines'
p6
(lp7
(lp8
I-8
aI-9
aI-2
aI6
aI01
aI01
aI00
aa(lp9
I6
aI-7
aI8
aI-1
aI00
aI01
aI00
aasS'n_lines'
p10
I2
sS'iter_i'
p11
I2
sS'iter_j'
p12
I2
sS'building_time'
p13
F21.856340169906616
sS'solving_time'
p14
F3.8549649715423584
sS'transforms'
p15
(lp16
I9
aI0
aI7
aI1
aI3
aI10
asS'squares'
p17
(lp18
(lp19
I-5
aI-9
aI2
aa(lp20
I10
aI-10
aI2
aasS'method'
p21
S'full'
p22
sa(dp23
S'n_squares'
p24
I2
sS'program_size'
p25
I8
sS'ce_size'
p26
I1024
sS'n_lines'
p27
I2
sS'iter_i'
p28
I2
sS'iter_j'
p29
I2
sS'building_time'
p30
F23.131968021392822
sS'solving_time'
p31
F2.587357997894287
sS'transforms'
p32
(lp33
I0
aI0
aI10
aI10
aI0
aI5
asS'method'
p34
S'full'
p35
sS'squares'
p36
(lp37
(lp38
I-7
aI-8
aI2
aa(lp39
I2
aI-5
aI2
aasS'lines'
p40
(lp41
(lp42
I-1
aI9
aI10
aI10
aI00
aI01
aI00
aa(lp43
I-6
aI6
aI4
aI9
aI01
aI00
aI01
aasa(dp44
g24
I2
sg25
I8
sg26
I1024
sg27
I2
sg28
I2
sg29
I2
sg30
F24.486620903015137
sg31
F2.4667820930480957
sg32
(lp45
I4
aI6
aI3
aI4
aI10
aI7
asg34
g35
sg36
(lp46
(lp47
I2
aI-9
aI2
aa(lp48
I10
aI-2
aI2
aasg40
(lp49
(lp50
I5
aI7
aI-2
aI10
aI01
aI01
aI00
aa(lp51
I1
aI-6
aI0
aI6
aI01
aI00
aI01
aasa(dp52
g24
I2
sg25
I8
sg26
I1024
sg27
I2
sg28
I2
sg29
I2
sg30
F23.570096015930176
sg31
F2.3454699516296387
sg32
(lp53
I10
aI6
aI6
aI0
aI0
aI0
asg34
g35
sg36
(lp54
(lp55
I-6
aI0
aI2
aa(lp56
I10
aI8
aI2
aasg40
(lp57
(lp58
I-4
aI-1
aI-5
aI2
aI00
aI00
aI00
aa(lp59
I-2
aI9
aI7
aI9
aI00
aI00
aI00
aasa(dp60
g24
I2
sg25
I8
sg26
I1024
sg27
I2
sg28
I2
sg29
I2
sg30
F24.109212160110474
sg31
F1.4708809852600098
sg32
(lp61
I8
aI9
aI9
aI3
aI6
aI6
asg34
g35
sg36
(lp62
(lp63
I8
aI-6
aI2
aa(lp64
I-3
aI-6
aI2
aasg40
(lp65
(lp66
I9
aI9
aI2
aI10
aI00
aI00
aI00
aa(lp67
I10
aI-6
aI9
aI-6
aI00
aI00
aI00
aasa(dp68
g24
I2
sg25
I8
sg26
I1024
sg27
I2
sg28
I2
sg29
I2
sg30
F26.876951932907104
sg31
F7.9085071086883545
sg32
(lp69
I9
aI2
aI10
aI8
aI0
aI2
asg34
g35
sg36
(lp70
(lp71
I1
aI10
aI2
aa(lp72
I-5
aI1
aI2
aasg40
(lp73
(lp74
I7
aI0
aI-1
aI4
aI01
aI00
aI01
aa(lp75
I4
aI4
aI3
aI10
aI00
aI01
aI00
aasa(dp76
g24
I2
sg25
I8
sg26
I1024
sg27
I2
sg28
I2
sg29
I2
sg30
F26.339539051055908
sg31
F3.723241090774536
sg32
(lp77
I7
aI1
aI7
aI9
aI5
aI10
asg34
g35
sg36
(lp78
(lp79
I10
aI-8
aI2
aa(lp80
I-3
aI-4
aI2
aasg40
(lp81
(lp82
I-3
aI4
aI-1
aI8
aI01
aI01
aI00
aa(lp83
I3
aI-6
aI4
aI1
aI01
aI00
aI00
aasa(dp84
g24
I2
sg25
I8
sg26
I1024
sg27
I2
sg28
I2
sg29
I2
sg30
F22.8279709815979
sg31
F2.515263080596924
sg32
(lp85
I7
aI2
aI0
aI8
aI3
aI0
asg34
g35
sg36
(lp86
(lp87
I7
aI9
aI2
aa(lp88
I5
aI-6
aI2
aasg40
(lp89
(lp90
I-1
aI3
aI4
aI8
aI00
aI00
aI00
aa(lp91
I-5
aI-1
aI6
aI5
aI01
aI00
aI00
aasa(dp92
g24
I2
sg25
I8
sg26
I1024
sg27
I2
sg28
I2
sg29
I2
sg30
F22.6070659160614
sg31
F8.704034090042114
sg32
(lp93
I10
aI4
aI9
aI0
aI5
aI0
asg34
g35
sg36
(lp94
(lp95
I-10
aI1
aI2
aa(lp96
I-8
aI5
aI2
aasg40
(lp97
(lp98
I-5
aI3
aI1
aI8
aI01
aI00
aI01
aa(lp99
I-8
aI1
aI-3
aI1
aI00
aI00
aI00
aasa(dp100
g24
I2
sg25
I8
sg26
I1024
sg27
I2
sg28
I2
sg29
I2
sg30
F23.314055919647217
sg31
F2.3545761108398438
sg32
(lp101
I6
aI0
aI6
aI8
aI0
aI3
asg34
g35
sg36
(lp102
(lp103
I4
aI-10
aI2
aa(lp104
I3
aI7
aI2
aasg40
(lp105
(lp106
I1
aI-5
aI-10
aI6
aI00
aI00
aI00
aa(lp107
I-9
aI-10
aI-2
aI-1
aI00
aI00
aI01
aasa(dp108
g24
I2
sg25
I8
sg26
I1024
sg27
I2
sg28
I2
sg29
I2
sg30
F25.491992950439453
sg31
F5.33355188369751
sg32
(lp109
I0
aI5
aI7
aI0
aI7
aI5
asg34
g35
sg36
(lp110
(lp111
I-7
aI-5
aI2
aa(lp112
I1
aI4
aI2
aasg40
(lp113
(lp114
I-4
aI-7
aI10
aI-2
aI00
aI00
aI00
aa(lp115
I7
aI-10
aI0
aI5
aI00
aI01
aI01
aasa(dp116
g24
I2
sg25
I8
sg26
I1024
sg27
I2
sg28
I2
sg29
I2
sg30
F21.55151915550232
sg31
F17.271031856536865
sg32
(lp117
I9
aI2
aI0
aI5
aI7
aI0
asg34
g35
sg36
(lp118
(lp119
I6
aI3
aI2
aa(lp120
I5
aI9
aI2
aasg40
(lp121
(lp122
I2
aI-2
aI-1
aI8
aI00
aI01
aI01
aa(lp123
I7
aI-5
aI-1
aI6
aI01
aI00
aI01
aasa(dp124
g24
I2
sg25
I6
sg26
I1024
sg27
I0
sg28
I2
sg29
I2
sg30
F21.608093976974487
sg31
F1.1439340114593506
sg32
(lp125
I0
aI6
aI6
aI0
aI1
aI4
asg34
g35
sg36
(lp126
(lp127
I4
aI4
aI2
aa(lp128
I-2
aI-2
aI2
aasg40
(lp129
sa(dp130
g24
I2
sg25
I8
sg26
I1024
sg27
I2
sg28
I2
sg29
I2
sg30
F22.011656045913696
sg31
F1.8416051864624023
sg32
(lp131
I0
aI8
aI6
aI0
aI10
aI10
asg34
g35
sg36
(lp132
(lp133
I9
aI3
aI2
aa(lp134
I-4
aI-7
aI2
aasg40
(lp135
(lp136
I10
aI4
aI10
aI5
aI00
aI00
aI00
aa(lp137
I7
aI-8
aI-10
aI5
aI00
aI00
aI00
aasa(dp138
g24
I2
sg25
I8
sg26
I1024
sg27
I2
sg28
I2
sg29
I2
sg30
F22.074069023132324
sg31
F9.847583055496216
sg32
(lp139
I0
aI5
aI10
aI2
aI1
aI0
asg34
g35
sg36
(lp140
(lp141
I-10
aI3
aI2
aa(lp142
I-5
aI-2
aI2
aasg40
(lp143
(lp144
I5
aI-1
aI6
aI0
aI00
aI01
aI01
aa(lp145
I6
aI-1
aI2
aI0
aI01
aI00
aI00
aasa(dp146
g24
I2
sg25
I8
sg26
I1024
sg27
I2
sg28
I2
sg29
I2
sg30
F21.62509799003601
sg31
F6.878375053405762
sg32
(lp147
I7
aI9
aI3
aI10
aI2
aI0
asg34
g35
sg36
(lp148
(lp149
I4
aI2
aI2
aa(lp150
I-10
aI-6
aI2
aasg40
(lp151
(lp152
I2
aI5
aI5
aI9
aI01
aI01
aI00
aa(lp153
I-8
aI-10
aI-6
aI-6
aI00
aI01
aI00
aasa(dp154
g24
I2
sg25
I8
sg26
I1024
sg27
I2
sg28
I2
sg29
I2
sg30
F25.421474933624268
sg31
F3.314039945602417
sg32
(lp155
I9
aI10
aI2
aI8
aI7
aI8
asg34
g35
sg36
(lp156
(lp157
I6
aI-10
aI2
aa(lp158
I-10
aI-3
aI2
aasg40
(lp159
(lp160
I7
aI-3
aI7
aI-3
aI00
aI00
aI00
aa(lp161
I7
aI-2
aI4
aI-2
aI00
aI00
aI00
aasa(dp162
g24
I2
sg25
I8
sg26
I1024
sg27
I2
sg28
I2
sg29
I2
sg30
F24.208141803741455
sg31
F2.7773070335388184
sg32
(lp163
I0
aI6
aI7
aI0
aI10
aI9
asg34
g35
sg36
(lp164
(lp165
I-5
aI2
aI2
aa(lp166
I2
aI0
aI2
aasg40
(lp167
(lp168
I-5
aI-7
aI5
aI-5
aI01
aI01
aI00
aa(lp169
I10
aI-10
aI6
aI-4
aI00
aI01
aI01
aasa(dp170
g24
I2
sg25
I8
sg26
I1024
sg27
I2
sg28
I2
sg29
I2
sg30
F21.84058403968811
sg31
F2.515350103378296
sg32
(lp171
I7
aI0
aI1
aI10
aI0
aI10
asg34
g35
sg36
(lp172
(lp173
I0
aI3
aI2
aa(lp174
I10
aI-2
aI2
aasg40
(lp175
(lp176
I-7
aI-5
aI-2
aI-1
aI00
aI00
aI00
aa(lp177
I1
aI-7
aI-3
aI3
aI01
aI00
aI00
aasa(dp178
g24
I2
sg25
I8
sg26
I1024
sg27
I2
sg28
I2
sg29
I2
sg30
F22.045481204986572
sg31
F3.2971668243408203
sg32
(lp179
I5
aI10
aI1
aI5
aI10
aI9
asg34
g35
sg36
(lp180
(lp181
I0
aI3
aI2
aa(lp182
I4
aI3
aI2
aasg40
(lp183
(lp184
I10
aI1
aI6
aI4
aI01
aI01
aI00
aa(lp185
I4
aI-10
aI1
aI7
aI00
aI00
aI01
aasa(dp186
g24
I2
sg25
I8
sg26
I1024
sg27
I2
sg28
I2
sg29
I2
sg30
F25.53174877166748
sg31
F4.6586010456085205
sg32
(lp187
I4
aI1
aI4
aI1
aI7
aI10
asg34
g35
sg36
(lp188
(lp189
I-1
aI2
aI2
aa(lp190
I8
aI7
aI2
aasg40
(lp191
(lp192
I-2
aI-8
aI-10
aI5
aI01
aI01
aI01
aa(lp193
I-8
aI-3
aI-8
aI3
aI00
aI01
aI01
aasa(dp194
g24
I2
sg25
I8
sg26
I1024
sg27
I2
sg28
I2
sg29
I2
sg30
F22.09405493736267
sg31
F4.891718149185181
sg32
(lp195
I0
aI4
aI10
aI4
aI6
aI0
asg34
g35
sg36
(lp196
(lp197
I1
aI-4
aI2
aa(lp198
I6
aI3
aI2
aasg40
(lp199
(lp200
I0
aI7
aI-9
aI8
aI00
aI00
aI00
aa(lp201
I-4
aI5
aI8
aI9
aI00
aI01
aI01
aasa(dp202
g24
I2
sg25
I8
sg26
I1024
sg27
I2
sg28
I2
sg29
I2
sg30
F22.50510311126709
sg31
F4.229001998901367
sg32
(lp203
I8
aI8
aI6
aI8
aI7
aI10
asg34
g35
sg36
(lp204
(lp205
I3
aI2
aI2
aa(lp206
I-5
aI0
aI2
aasg40
(lp207
(lp208
I2
aI-6
aI10
aI-5
aI01
aI01
aI01
aa(lp209
I7
aI-9
aI-5
aI3
aI00
aI00
aI01
aasa(dp210
g24
I2
sg25
I8
sg26
I1024
sg27
I2
sg28
I2
sg29
I2
sg30
F25.469116926193237
sg31
F1.1748039722442627
sg32
(lp211
I0
aI9
aI0
aI0
aI0
aI3
asg34
g35
sg36
(lp212
(lp213
I9
aI10
aI2
aa(lp214
I6
aI9
aI2
aasg40
(lp215
(lp216
I-9
aI-1
aI9
aI-1
aI00
aI00
aI00
aa(lp217
I-1
aI-4
aI-8
aI-1
aI00
aI00
aI00
aasa(dp218
g24
I2
sg25
I8
sg26
I1024
sg27
I2
sg28
I2
sg29
I2
sg30
F24.77340006828308
sg31
F7.522584915161133
sg32
(lp219
I1
aI5
aI4
aI0
aI9
aI2
asg34
g35
sg36
(lp220
(lp221
I-7
aI-2
aI2
aa(lp222
I1
aI3
aI2
aasg40
(lp223
(lp224
I10
aI5
aI-10
aI5
aI00
aI00
aI00
aa(lp225
I10
aI6
aI-3
aI10
aI01
aI01
aI01
aasa(dp226
g24
I2
sg25
I8
sg26
I1024
sg27
I2
sg28
I2
sg29
I2
sg30
F21.994611978530884
sg31
F4.498236894607544
sg32
(lp227
I0
aI8
aI7
aI0
aI9
aI10
asg34
g35
sg36
(lp228
(lp229
I0
aI-3
aI2
aa(lp230
I-10
aI-2
aI2
aasg40
(lp231
(lp232
I7
aI-5
aI7
aI3
aI00
aI01
aI00
aa(lp233
I7
aI4
aI-10
aI4
aI01
aI01
aI00
aasa(dp234
g24
I2
sg25
I8
sg26
I1024
sg27
I2
sg28
I2
sg29
I2
sg30
F26.063229084014893
sg31
F2.7236578464508057
sg32
(lp235
I10
aI0
aI5
aI8
aI0
aI3
asg34
g35
sg36
(lp236
(lp237
I9
aI10
aI2
aa(lp238
I4
aI-7
aI2
aasg40
(lp239
(lp240
I-6
aI0
aI10
aI10
aI01
aI01
aI00
aa(lp241
I0
aI-9
aI-7
aI3
aI00
aI00
aI01
aasa(dp242
g24
I2
sg25
I8
sg26
I1024
sg27
I2
sg28
I2
sg29
I2
sg30
F22.43271803855896
sg31
F5.0725507736206055
sg32
(lp243
I9
aI0
aI3
aI8
aI4
aI10
asg34
g35
sg36
(lp244
(lp245
I6
aI5
aI2
aa(lp246
I8
aI0
aI2
aasg40
(lp247
(lp248
I7
aI1
aI-1
aI4
aI00
aI00
aI00
aa(lp249
I10
aI-9
aI0
aI-9
aI00
aI01
aI00
aasa(dp250
g24
I2
sg25
I8
sg26
I1024
sg27
I2
sg28
I2
sg29
I2
sg30
F21.98907208442688
sg31
F9.252331018447876
sg32
(lp251
I2
aI1
aI10
aI0
aI3
aI5
asg34
g35
sg36
(lp252
(lp253
I-8
aI-8
aI2
aa(lp254
I9
aI-1
aI2
aasg40
(lp255
(lp256
I4
aI-2
aI-6
aI7
aI01
aI00
aI00
aa(lp257
I-10
aI5
aI-3
aI10
aI01
aI00
aI01
aasa(dp258
g24
I2
sg25
I8
sg26
I1024
sg27
I2
sg28
I2
sg29
I2
sg30
F21.62487292289734
sg31
F2.4874231815338135
sg32
(lp259
I6
aI1
aI0
aI7
aI9
aI9
asg34
g35
sg36
(lp260
(lp261
I1
aI5
aI2
aa(lp262
I1
aI-10
aI2
aasg40
(lp263
(lp264
I4
aI-8
aI5
aI7
aI01
aI00
aI00
aa(lp265
I7
aI-6
aI4
aI10
aI00
aI00
aI01
aasa(dp266
g24
I2
sg25
I8
sg26
I1024
sg27
I2
sg28
I2
sg29
I2
sg30
F21.72962713241577
sg31
F2.353038787841797
sg32
(lp267
I3
aI9
aI8
aI10
aI6
aI8
asg34
g35
sg36
(lp268
(lp269
I-2
aI-9
aI2
aa(lp270
I1
aI-6
aI2
aasg40
(lp271
(lp272
I7
aI-10
aI10
aI1
aI00
aI00
aI01
aa(lp273
I3
aI-7
aI6
aI-5
aI01
aI00
aI00
aasa(dp274
g24
I2
sg25
I8
sg26
I1024
sg27
I2
sg28
I2
sg29
I2
sg30
F21.51594305038452
sg31
F7.931228876113892
sg32
(lp275
I2
aI6
aI10
aI8
aI8
aI0
asg34
g35
sg36
(lp276
(lp277
I-1
aI-1
aI2
aa(lp278
I2
aI-3
aI2
aasg40
(lp279
(lp280
I8
aI-4
aI-9
aI8
aI01
aI01
aI01
aa(lp281
I8
aI2
aI7
aI9
aI01
aI00
aI01
aasa(dp282
g24
I2
sg25
I8
sg26
I1024
sg27
I2
sg28
I2
sg29
I2
sg30
F22.835397005081177
sg31
F5.292384147644043
sg32
(lp283
I7
aI9
aI6
aI10
aI9
aI0
asg34
g35
sg36
(lp284
(lp285
I7
aI7
aI2
aa(lp286
I2
aI0
aI2
aasg40
(lp287
(lp288
I10
aI3
aI-7
aI3
aI01
aI00
aI00
aa(lp289
I-5
aI6
aI3
aI8
aI01
aI00
aI00
aasa(dp290
g24
I2
sg25
I8
sg26
I1024
sg27
I2
sg28
I2
sg29
I2
sg30
F22.52968120574951
sg31
F3.6869709491729736
sg32
(lp291
I7
aI0
aI10
aI9
aI0
aI9
asg34
g35
sg36
(lp292
(lp293
I3
aI-5
aI2
aa(lp294
I-7
aI8
aI2
aasg40
(lp295
(lp296
I-5
aI9
aI-6
aI10
aI00
aI00
aI00
aa(lp297
I6
aI-10
aI-1
aI-3
aI01
aI00
aI01
aasa(dp298
g24
I2
sg25
I8
sg26
I1024
sg27
I2
sg28
I2
sg29
I2
sg30
F22.078548192977905
sg31
F9.959054946899414
sg32
(lp299
I4
aI6
aI0
aI2
aI6
aI9
asg34
g35
sg36
(lp300
(lp301
I2
aI-4
aI2
aa(lp302
I9
aI10
aI2
aasg40
(lp303
(lp304
I-1
aI-9
aI2
aI-8
aI00
aI01
aI00
aa(lp305
I6
aI3
aI9
aI8
aI00
aI01
aI01
aasa(dp306
g24
I2
sg25
I8
sg26
I1024
sg27
I2
sg28
I2
sg29
I2
sg30
F21.664905071258545
sg31
F4.702054023742676
sg32
(lp307
I1
aI2
aI6
aI9
aI5
aI8
asg34
g35
sg36
(lp308
(lp309
I-1
aI-3
aI2
aa(lp310
I5
aI4
aI2
aasg40
(lp311
(lp312
I10
aI-10
aI9
aI-3
aI01
aI01
aI01
aa(lp313
I-1
aI0
aI-6
aI2
aI00
aI00
aI01
aasa(dp314
g24
I2
sg25
I8
sg26
I1024
sg27
I2
sg28
I2
sg29
I2
sg30
F21.906938791275024
sg31
F8.730633974075317
sg32
(lp315
I10
aI0
aI9
aI2
aI0
aI8
asg34
g35
sg36
(lp316
(lp317
I-4
aI-8
aI2
aa(lp318
I-3
aI-4
aI2
aasg40
(lp319
(lp320
I-9
aI-10
aI3
aI6
aI00
aI00
aI01
aa(lp321
I-8
aI4
aI-10
aI6
aI01
aI00
aI00
aasa(dp322
g24
I2
sg25
I8
sg26
I1024
sg27
I2
sg28
I2
sg29
I2
sg30
F21.75538206100464
sg31
F4.942070960998535
sg32
(lp323
I5
aI5
aI10
aI9
aI6
aI0
asg34
g35
sg36
(lp324
(lp325
I0
aI-3
aI2
aa(lp326
I2
aI8
aI2
aasg40
(lp327
(lp328
I6
aI3
aI3
aI9
aI01
aI00
aI01
aa(lp329
I8
aI6
aI5
aI7
aI01
aI01
aI01
aasa(dp330
g24
I2
sg25
I8
sg26
I1024
sg27
I2
sg28
I2
sg29
I2
sg30
F21.918977975845337
sg31
F2.625601053237915
sg32
(lp331
I1
aI2
aI7
aI10
aI5
aI10
asg34
g35
sg36
(lp332
(lp333
I-10
aI-1
aI2
aa(lp334
I-7
aI7
aI2
aasg40
(lp335
(lp336
I-4
aI1
aI0
aI5
aI00
aI00
aI00
aa(lp337
I2
aI-8
aI-2
aI4
aI00
aI00
aI00
aasa(dp338
g24
I2
sg25
I8
sg26
I1024
sg27
I2
sg28
I2
sg29
I2
sg30
F21.53700280189514
sg31
F1.754472017288208
sg32
(lp339
I1
aI3
aI5
aI8
aI10
aI5
asg34
g35
sg36
(lp340
(lp341
I10
aI3
aI2
aa(lp342
I-10
aI9
aI2
aasg40
(lp343
(lp344
I2
aI-4
aI-8
aI10
aI01
aI00
aI00
aa(lp345
I-1
aI-10
aI-3
aI5
aI01
aI00
aI00
aasa(dp346
g24
I2
sg25
I8
sg26
I1024
sg27
I2
sg28
I2
sg29
I2
sg30
F25.79894995689392
sg31
F6.758647918701172
sg32
(lp347
I0
aI0
aI6
aI9
aI8
aI0
asg34
g35
sg36
(lp348
(lp349
I5
aI-9
aI2
aa(lp350
I8
aI-6
aI2
aasg40
(lp351
(lp352
I-1
aI-10
aI2
aI-10
aI00
aI00
aI00
aa(lp353
I10
aI8
aI5
aI9
aI00
aI00
aI01
aasa(dp354
g24
I2
sg25
I8
sg26
I1024
sg27
I2
sg28
I2
sg29
I2
sg30
F21.92953395843506
sg31
F3.620410919189453
sg32
(lp355
I4
aI9
aI9
aI3
aI7
aI10
asg34
g35
sg36
(lp356
(lp357
I8
aI-3
aI2
aa(lp358
I9
aI-2
aI2
aasg40
(lp359
(lp360
I5
aI6
aI8
aI9
aI00
aI01
aI00
aa(lp361
I10
aI0
aI-10
aI1
aI01
aI00
aI00
aasa(dp362
g24
I2
sg25
I8
sg26
I1024
sg27
I2
sg28
I2
sg29
I2
sg30
F22.13587713241577
sg31
F3.887579917907715
sg32
(lp363
I4
aI1
aI5
aI10
aI5
aI5
asg34
g35
sg36
(lp364
(lp365
I4
aI9
aI2
aa(lp366
I-10
aI2
aI2
aasg40
(lp367
(lp368
I5
aI-4
aI0
aI6
aI01
aI00
aI01
aa(lp369
I-3
aI2
aI-8
aI10
aI00
aI00
aI00
aasa(dp370
g24
I2
sg25
I8
sg26
I1024
sg27
I2
sg28
I2
sg29
I2
sg30
F23.33106803894043
sg31
F2.2439699172973633
sg32
(lp371
I1
aI9
aI10
aI1
aI10
aI3
asg34
g35
sg36
(lp372
(lp373
I5
aI3
aI2
aa(lp374
I3
aI-10
aI2
aasg40
(lp375
(lp376
I6
aI-8
aI-2
aI-7
aI00
aI00
aI00
aa(lp377
I-2
aI7
aI-1
aI10
aI00
aI01
aI00
aasa(dp378
g24
I2
sg25
I8
sg26
I1024
sg27
I2
sg28
I2
sg29
I2
sg30
F21.57889199256897
sg31
F2.9605181217193604
sg32
(lp379
I4
aI9
aI5
aI2
aI7
aI10
asg34
g35
sg36
(lp380
(lp381
I1
aI-6
aI2
aa(lp382
I7
aI-4
aI2
aasg40
(lp383
(lp384
I1
aI-9
aI9
aI2
aI00
aI01
aI01
aa(lp385
I-3
aI-5
aI10
aI1
aI00
aI00
aI00
aasa(dp386
g24
I2
sg25
I8
sg26
I1024
sg27
I2
sg28
I2
sg29
I2
sg30
F21.842999935150146
sg31
F8.087666988372803
sg32
(lp387
I0
aI2
aI6
aI0
aI2
aI6
asg34
g35
sg36
(lp388
(lp389
I-1
aI0
aI2
aa(lp390
I-1
aI-7
aI2
aasg40
(lp391
(lp392
I4
aI5
aI-9
aI9
aI00
aI00
aI01
aa(lp393
I-3
aI3
aI-1
aI10
aI00
aI00
aI00
aasa(dp394
g24
I2
sg25
I8
sg26
I1024
sg27
I2
sg28
I2
sg29
I2
sg30
F22.638606071472168
sg31
F3.3024609088897705
sg32
(lp395
I4
aI7
aI6
aI7
aI1
aI7
asg34
g35
sg36
(lp396
(lp397
I-7
aI6
aI2
aa(lp398
I-8
aI1
aI2
aasg40
(lp399
(lp400
I0
aI4
aI-10
aI9
aI01
aI01
aI00
aa(lp401
I-8
aI8
aI-10
aI10
aI01
aI01
aI01
aasa(dp402
g24
I2
sg25
I8
sg26
I1024
sg27
I2
sg28
I2
sg29
I2
sg30
F25.75244688987732
sg31
F1.6873791217803955
sg32
(lp403
I0
aI7
aI3
aI0
aI1
aI10
asg34
g35
sg36
(lp404
(lp405
I4
aI-1
aI2
aa(lp406
I6
aI4
aI2
aasg40
(lp407
(lp408
I7
aI4
aI5
aI4
aI00
aI00
aI00
aa(lp409
I4
aI6
aI8
aI6
aI00
aI00
aI00
aasa(dp410
g24
I2
sg25
I8
sg26
I1024
sg27
I2
sg28
I2
sg29
I2
sg30
F25.779638051986694
sg31
F3.0039560794830322
sg32
(lp411
I6
aI9
aI3
aI8
aI5
aI0
asg34
g35
sg36
(lp412
(lp413
I9
aI-9
aI2
aa(lp414
I-1
aI10
aI2
aasg40
(lp415
(lp416
I10
aI-7
aI-7
aI10
aI01
aI01
aI00
aa(lp417
I-4
aI-8
aI0
aI5
aI00
aI00
aI00
aasa(dp418
g24
I2
sg25
I8
sg26
I1024
sg27
I2
sg28
I2
sg29
I2
sg30
F27.30978012084961
sg31
F26.627116918563843
sg32
(lp419
I0
aI4
aI5
aI0
aI7
aI5
asg34
g35
sg36
(lp420
(lp421
I-7
aI1
aI2
aa(lp422
I9
aI0
aI2
aasg40
(lp423
(lp424
I2
aI-10
aI-10
aI-6
aI00
aI00
aI01
aa(lp425
I-6
aI-7
aI7
aI0
aI00
aI00
aI01
aasa(dp426
g24
I2
sg25
I8
sg26
I1024
sg27
I2
sg28
I2
sg29
I2
sg30
F21.70911192893982
sg31
F5.587067127227783
sg32
(lp427
I2
aI8
aI10
aI3
aI5
aI2
asg34
g35
sg36
(lp428
(lp429
I2
aI-10
aI2
aa(lp430
I-8
aI7
aI2
aasg40
(lp431
(lp432
I6
aI-8
aI4
aI0
aI00
aI00
aI00
aa(lp433
I9
aI1
aI-9
aI4
aI00
aI01
aI00
aasa(dp434
g24
I2
sg25
I8
sg26
I1024
sg27
I2
sg28
I2
sg29
I2
sg30
F22.38812279701233
sg31
F4.765078067779541
sg32
(lp435
I8
aI8
aI6
aI9
aI6
aI8
asg34
g35
sg36
(lp436
(lp437
I5
aI10
aI2
aa(lp438
I-2
aI10
aI2
aasg40
(lp439
(lp440
I-5
aI-1
aI6
aI6
aI00
aI01
aI01
aa(lp441
I1
aI0
aI10
aI6
aI01
aI00
aI01
aasa(dp442
g24
I2
sg25
I8
sg26
I1024
sg27
I2
sg28
I2
sg29
I2
sg30
F21.948119163513184
sg31
F8.345489025115967
sg32
(lp443
I5
aI2
aI9
aI1
aI7
aI0
asg34
g35
sg36
(lp444
(lp445
I-3
aI10
aI2
aa(lp446
I10
aI-9
aI2
aasg40
(lp447
(lp448
I3
aI-1
aI5
aI4
aI00
aI01
aI01
aa(lp449
I7
aI-7
aI-10
aI6
aI01
aI00
aI00
aasa(dp450
g24
I2
sg25
I8
sg26
I1024
sg27
I2
sg28
I2
sg29
I2
sg30
F22.11700201034546
sg31
F2.0796010494232178
sg32
(lp451
I2
aI2
aI0
aI5
aI8
aI7
asg34
g35
sg36
(lp452
(lp453
I9
aI-4
aI2
aa(lp454
I-2
aI3
aI2
aasg40
(lp455
(lp456
I9
aI-10
aI8
aI-9
aI00
aI00
aI00
aa(lp457
I-1
aI-4
aI0
aI7
aI00
aI00
aI01
aasa(dp458
g24
I2
sg25
I8
sg26
I1024
sg27
I2
sg28
I2
sg29
I2
sg30
F22.031272888183594
sg31
F28.00675892829895
sg32
(lp459
I5
aI0
aI0
aI2
aI8
aI0
asg34
g35
sg36
(lp460
(lp461
I6
aI10
aI2
aa(lp462
I-2
aI6
aI2
aasg40
(lp463
(lp464
I1
aI-4
aI3
aI10
aI00
aI01
aI00
aa(lp465
I1
aI4
aI-4
aI9
aI00
aI01
aI01
aasa(dp466
g24
I2
sg25
I8
sg26
I1024
sg27
I2
sg28
I2
sg29
I2
sg30
F21.938045978546143
sg31
F8.203503847122192
sg32
(lp467
I5
aI0
aI0
aI8
aI6
aI0
asg34
g35
sg36
(lp468
(lp469
I-6
aI-5
aI2
aa(lp470
I4
aI4
aI2
aasg40
(lp471
(lp472
I0
aI-1
aI-3
aI-1
aI00
aI00
aI00
aa(lp473
I6
aI0
aI3
aI2
aI00
aI01
aI00
aasa(dp474
g24
I2
sg25
I8
sg26
I1024
sg27
I2
sg28
I2
sg29
I2
sg30
F21.939518928527832
sg31
F8.622519969940186
sg32
(lp475
I6
aI6
aI7
aI2
aI1
aI0
asg34
g35
sg36
(lp476
(lp477
I10
aI0
aI2
aa(lp478
I-1
aI8
aI2
aasg40
(lp479
(lp480
I-6
aI2
aI-4
aI7
aI01
aI00
aI00
aa(lp481
I-4
aI-1
aI-6
aI8
aI01
aI00
aI00
aasa(dp482
g24
I2
sg25
I8
sg26
I1024
sg27
I2
sg28
I2
sg29
I2
sg30
F21.779754161834717
sg31
F6.159505844116211
sg32
(lp483
I1
aI1
aI3
aI8
aI8
aI8
asg34
g35
sg36
(lp484
(lp485
I10
aI10
aI2
aa(lp486
I1
aI10
aI2
aasg40
(lp487
(lp488
I-1
aI-4
aI-3
aI-4
aI01
aI01
aI00
aa(lp489
I-9
aI2
aI-10
aI2
aI00
aI00
aI00
aasa(dp490
g24
I2
sg25
I8
sg26
I1024
sg27
I2
sg28
I2
sg29
I2
sg30
F25.215637922286987
sg31
F7.451380968093872
sg32
(lp491
I1
aI5
aI2
aI1
aI5
aI3
asg34
g35
sg36
(lp492
(lp493
I-1
aI10
aI2
aa(lp494
I-3
aI-8
aI2
aasg40
(lp495
(lp496
I0
aI-6
aI-2
aI5
aI01
aI01
aI00
aa(lp497
I-1
aI-5
aI2
aI3
aI00
aI00
aI01
aasa(dp498
g24
I2
sg25
I8
sg26
I1024
sg27
I2
sg28
I2
sg29
I2
sg30
F21.553012132644653
sg31
F6.584203004837036
sg32
(lp499
I1
aI9
aI7
aI3
aI7
aI1
asg34
g35
sg36
(lp500
(lp501
I7
aI-4
aI2
aa(lp502
I0
aI-4
aI2
aasg40
(lp503
(lp504
I10
aI-6
aI2
aI10
aI00
aI01
aI00
aa(lp505
I5
aI-1
aI1
aI5
aI01
aI00
aI01
aasa(dp506
g24
I2
sg25
I8
sg26
I1024
sg27
I2
sg28
I2
sg29
I2
sg30
F22.009627103805542
sg31
F7.0694780349731445
sg32
(lp507
I5
aI3
aI6
aI6
aI7
aI2
asg34
g35
sg36
(lp508
(lp509
I-1
aI6
aI2
aa(lp510
I-3
aI-4
aI2
aasg40
(lp511
(lp512
I-7
aI-4
aI-8
aI8
aI00
aI00
aI00
aa(lp513
I-10
aI-5
aI-1
aI10
aI01
aI00
aI01
aasa(dp514
g24
I2
sg25
I8
sg26
I1024
sg27
I2
sg28
I2
sg29
I2
sg30
F21.812941074371338
sg31
F9.214631795883179
sg32
(lp515
I5
aI0
aI4
aI7
aI5
aI0
asg34
g35
sg36
(lp516
(lp517
I-5
aI1
aI2
aa(lp518
I-7
aI-7
aI2
aasg40
(lp519
(lp520
I2
aI-2
aI10
aI5
aI00
aI00
aI01
aa(lp521
I7
aI-8
aI-3
aI4
aI01
aI01
aI01
aasa(dp522
g24
I2
sg25
I8
sg26
I1024
sg27
I2
sg28
I2
sg29
I2
sg30
F22.03806209564209
sg31
F6.469717979431152
sg32
(lp523
I10
aI9
aI2
aI4
aI4
aI6
asg34
g35
sg36
(lp524
(lp525
I-6
aI-6
aI2
aa(lp526
I5
aI2
aI2
aasg40
(lp527
(lp528
I10
aI-1
aI2
aI1
aI01
aI00
aI00
aa(lp529
I2
aI-7
aI-1
aI-5
aI01
aI00
aI01
aasa(dp530
g24
I2
sg25
I8
sg26
I1024
sg27
I2
sg28
I2
sg29
I2
sg30
F22.10186004638672
sg31
F7.08328104019165
sg32
(lp531
I1
aI9
aI0
aI1
aI7
aI6
asg34
g35
sg36
(lp532
(lp533
I-6
aI-5
aI2
aa(lp534
I-8
aI-8
aI2
aasg40
(lp535
(lp536
I-3
aI0
aI0
aI10
aI00
aI01
aI00
aa(lp537
I4
aI-3
aI-10
aI1
aI00
aI00
aI01
aasa(dp538
g24
I2
sg25
I8
sg26
I1024
sg27
I2
sg28
I2
sg29
I2
sg30
F22.052958965301514
sg31
F8.46051287651062
sg32
(lp539
I7
aI10
aI0
aI3
aI8
aI1
asg34
g35
sg36
(lp540
(lp541
I-5
aI-5
aI2
aa(lp542
I1
aI-2
aI2
aasg40
(lp543
(lp544
I4
aI2
aI-5
aI3
aI00
aI01
aI01
aa(lp545
I1
aI-8
aI-6
aI10
aI00
aI00
aI00
aasa(dp546
g24
I2
sg25
I8
sg26
I1024
sg27
I2
sg28
I2
sg29
I2
sg30
F21.959362983703613
sg31
F1.7931458950042725
sg32
(lp547
I0
aI9
aI10
aI0
aI7
aI4
asg34
g35
sg36
(lp548
(lp549
I4
aI8
aI2
aa(lp550
I-9
aI-3
aI2
aasg40
(lp551
(lp552
I-6
aI3
aI-5
aI3
aI00
aI01
aI00
aa(lp553
I-4
aI5
aI6
aI10
aI00
aI00
aI01
aasa(dp554
g24
I2
sg25
I8
sg26
I1024
sg27
I2
sg28
I2
sg29
I2
sg30
F25.721996784210205
sg31
F8.047065019607544
sg32
(lp555
I10
aI5
aI0
aI6
aI5
aI7
asg34
g35
sg36
(lp556
(lp557
I10
aI6
aI2
aa(lp558
I-1
aI-10
aI2
aasg40
(lp559
(lp560
I9
aI-8
aI-3
aI-1
aI00
aI01
aI01
aa(lp561
I-7
aI-9
aI-6
aI-5
aI00
aI00
aI01
aasa(dp562
g24
I2
sg25
I8
sg26
I1024
sg27
I2
sg28
I2
sg29
I2
sg30
F21.854473114013672
sg31
F5.410712957382202
sg32
(lp563
I0
aI9
aI4
aI0
aI1
aI10
asg34
g35
sg36
(lp564
(lp565
I2
aI9
aI2
aa(lp566
I7
aI3
aI2
aasg40
(lp567
(lp568
I-5
aI1
aI-10
aI1
aI00
aI00
aI00
aa(lp569
I9
aI2
aI8
aI2
aI00
aI00
aI00
aasa(dp570
g24
I2
sg25
I8
sg26
I1024
sg27
I2
sg28
I2
sg29
I2
sg30
F25.795858144760132
sg31
F7.721750974655151
sg32
(lp571
I6
aI0
aI10
aI1
aI0
aI3
asg34
g35
sg36
(lp572
(lp573
I0
aI0
aI2
aa(lp574
I1
aI1
aI2
aasg40
(lp575
(lp576
I3
aI3
aI-7
aI7
aI00
aI00
aI01
aa(lp577
I-1
aI-5
aI-8
aI10
aI00
aI00
aI01
aasa(dp578
g24
I2
sg25
I8
sg26
I1024
sg27
I2
sg28
I2
sg29
I2
sg30
F21.90256905555725
sg31
F3.4296441078186035
sg32
(lp579
I4
aI0
aI0
aI6
aI0
aI8
asg34
g35
sg36
(lp580
(lp581
I4
aI0
aI2
aa(lp582
I7
aI-6
aI2
aasg40
(lp583
(lp584
I5
aI-3
aI5
aI9
aI00
aI00
aI00
aa(lp585
I4
aI-4
aI-1
aI-4
aI00
aI00
aI00
aasa(dp586
g24
I2
sg25
I8
sg26
I1024
sg27
I2
sg28
I2
sg29
I2
sg30
F21.934555053710938
sg31
F3.3999578952789307
sg32
(lp587
I5
aI10
aI1
aI5
aI10
aI1
asg34
g35
sg36
(lp588
(lp589
I-9
aI2
aI2
aa(lp590
I-1
aI-10
aI2
aasg40
(lp591
(lp592
I-8
aI3
aI-9
aI3
aI00
aI00
aI00
aa(lp593
I-8
aI-7
aI8
aI-1
aI01
aI01
aI01
aasaa(lp594
(dp595
g3
I2
sg4
I8
sg5
I103
sg6
(lp596
(lp597
I-10
aI-9
aI-4
aI6
aI01
aI01
aI00
aa(lp598
I4
aI-7
aI6
aI-1
aI01
aI00
aI00
aasg10
I2
sg11
I2
sg12
I2
sg13
F2.4961721897125244
sg14
F6.926894664764404
sg15
(lp599
I0
aI9
aI9
aI5
aI1
aI8
asS'checking_time'
p600
F15.9966561794281
sg17
(lp601
(lp602
I-7
aI-9
aI2
aa(lp603
I8
aI-10
aI2
aasg21
S'cegis'
p604
sa(dp605
g24
I2
sg25
I7
sg26
I139
sg27
I2
sg28
I2
sg29
I1
sg30
F3.610630750656128
sg31
F2.8549327850341797
sg32
(lp606
I0
aI0
aI10
aI10
aI0
aI7
asS'checking_time'
p607
F21.855966329574585
sg34
S'cegis'
p608
sg36
(lp609
(lp610
I2
aI-7
aI2
aa(lp611
I-7
aI-10
aI2
aasg40
(lp612
(lp613
I-6
aI4
aI4
aI7
aI01
aI00
aI01
aa(lp614
I-1
aI7
aI10
aI8
aI00
aI00
aI00
aasa(dp615
g24
I2
sg25
I8
sg26
I107
sg27
I2
sg28
I2
sg29
I2
sg30
F3.357893705368042
sg31
F6.206784248352051
sg32
(lp616
I6
aI4
aI3
aI10
aI4
aI8
asg607
F20.202681303024292
sg34
g608
sg36
(lp617
(lp618
I2
aI-10
aI2
aa(lp619
I10
aI-3
aI2
aasg40
(lp620
(lp621
I5
aI6
aI-2
aI9
aI01
aI01
aI00
aa(lp622
I1
aI-10
aI0
aI5
aI00
aI01
aI01
aasa(dp623
g24
I2
sg25
I7
sg26
I52
sg27
I1
sg28
I2
sg29
I2
sg30
F2.184692621231079
sg31
F0.8041646480560303
sg32
(lp624
I6
aI10
aI8
aI0
aI0
aI0
asg607
F11.762916803359985
sg34
g608
sg36
(lp625
(lp626
I-8
aI0
aI2
aa(lp627
I8
aI8
aI2
aasg40
(lp628
(lp629
I5
aI9
aI-4
aI9
aI00
aI00
aI00
aasa(dp630
g24
I2
sg25
I8
sg26
I65
sg27
I2
sg28
I2
sg29
I2
sg30
F1.6451551914215088
sg31
F3.135322093963623
sg32
(lp631
I8
aI9
aI8
aI3
aI6
aI6
asg607
F12.369204998016357
sg34
g608
sg36
(lp632
(lp633
I9
aI-6
aI2
aa(lp634
I-2
aI-6
aI2
aasg40
(lp635
(lp636
I8
aI-5
aI7
aI-4
aI01
aI01
aI00
aa(lp637
I10
aI9
aI3
aI10
aI00
aI00
aI00
aasa(dp638
g24
I2
sg25
I8
sg26
I80
sg27
I2
sg28
I2
sg29
I2
sg30
F2.0952999591827393
sg31
F7.902043104171753
sg32
(lp639
I9
aI2
aI10
aI8
aI0
aI2
asg607
F16.579745054244995
sg34
g608
sg36
(lp640
(lp641
I-5
aI1
aI2
aa(lp642
I1
aI10
aI2
aasg40
(lp643
(lp644
I7
aI0
aI-1
aI4
aI01
aI00
aI01
aa(lp645
I4
aI4
aI3
aI7
aI00
aI01
aI00
aasa(dp646
g24
I2
sg25
I8
sg26
I149
sg27
I2
sg28
I2
sg29
I2
sg30
F5.557775259017944
sg31
F6.457605838775635
sg32
(lp647
I1
aI7
aI7
aI5
aI9
aI8
asg607
F37.534366607666016
sg34
g608
sg36
(lp648
(lp649
I10
aI-6
aI2
aa(lp650
I-3
aI-2
aI2
aasg40
(lp651
(lp652
I-3
aI6
aI-1
aI10
aI01
aI01
aI00
aa(lp653
I3
aI-4
aI4
aI3
aI00
aI01
aI00
aasa(dp654
g24
I2
sg25
I8
sg26
I88
sg27
I2
sg28
I2
sg29
I2
sg30
F2.194319248199463
sg31
F19.951709985733032
sg32
(lp655
I2
aI7
aI0
aI3
aI8
aI4
asg607
F20.391120672225952
sg34
g608
sg36
(lp656
(lp657
I7
aI5
aI2
aa(lp658
I5
aI-10
aI2
aasg40
(lp659
(lp660
I-1
aI-1
aI4
aI4
aI00
aI00
aI00
aa(lp661
I-5
aI-5
aI6
aI1
aI00
aI01
aI00
aasa(dp662
g24
I2
sg25
I8
sg26
I55
sg27
I2
sg28
I2
sg29
I2
sg30
F1.321068525314331
sg31
F10.997377157211304
sg32
(lp663
I4
aI10
aI0
aI5
aI0
aI0
asg607
F13.135798692703247
sg34
g608
sg36
(lp664
(lp665
I-1
aI1
aI2
aa(lp666
I1
aI5
aI2
aasg40
(lp667
(lp668
I6
aI1
aI-8
aI1
aI00
aI01
aI00
aa(lp669
I-3
aI3
aI10
aI8
aI00
aI01
aI01
aasa(dp670
g24
I2
sg25
I7
sg26
I89
sg27
I2
sg28
I2
sg29
I1
sg30
F2.179896831512451
sg31
F1.545137882232666
sg32
(lp671
I6
aI2
aI0
aI8
aI10
aI3
asg607
F23.060635566711426
sg34
g608
sg36
(lp672
(lp673
I9
aI7
aI2
aa(lp674
I10
aI-10
aI2
aasg40
(lp675
(lp676
I7
aI-5
aI-4
aI6
aI01
aI00
aI00
aa(lp677
I-3
aI-10
aI4
aI-1
aI00
aI00
aI01
aasa(dp678
g24
I2
sg25
I7
sg26
I79
sg27
I2
sg28
I1
sg29
I2
sg30
F1.9165034294128418
sg31
F2.4452691078186035
sg32
(lp679
I8
aI5
aI7
aI0
aI7
aI5
asg607
F20.94883918762207
sg34
g608
sg36
(lp680
(lp681
I1
aI4
aI2
aa(lp682
I-7
aI-5
aI2
aasg40
(lp683
(lp684
I-4
aI-7
aI10
aI-2
aI00
aI00
aI00
aa(lp685
I7
aI-10
aI4
aI5
aI00
aI01
aI01
aasa(dp686
g24
I2
sg25
I8
sg26
I104
sg27
I2
sg28
I2
sg29
I2
sg30
F2.524214267730713
sg31
F51.378066539764404
sg32
(lp687
I9
aI2
aI0
aI5
aI7
aI5
asg607
F29.241636514663696
sg34
g608
sg36
(lp688
(lp689
I6
aI-2
aI2
aa(lp690
I5
aI4
aI2
aasg40
(lp691
(lp692
I7
aI-10
aI-1
aI1
aI01
aI00
aI01
aa(lp693
I2
aI-6
aI-1
aI3
aI00
aI01
aI01
aasa(dp694
g24
I2
sg25
I5
sg26
I61
sg27
I0
sg28
I1
sg29
I2
sg30
F1.4710047245025635
sg31
F0.5088813304901123
sg32
(lp695
I9
aI6
aI10
aI6
aI6
aI0
asg607
F17.20525550842285
sg34
g608
sg36
(lp696
(lp697
I-6
aI2
aI2
aa(lp698
I0
aI3
aI2
aasg40
(lp699
sa(dp700
g24
I2
sg25
I8
sg26
I101
sg27
I2
sg28
I2
sg29
I2
sg30
F2.4676692485809326
sg31
F1.2791931629180908
sg32
(lp701
I8
aI0
aI5
aI10
aI0
aI5
asg607
F29.935356855392456
sg34
g608
sg36
(lp702
(lp703
I-3
aI-2
aI2
aa(lp704
I10
aI8
aI2
aasg40
(lp705
(lp706
I8
aI-3
aI-9
aI10
aI00
aI00
aI00
aa(lp707
I-9
aI-3
aI-9
aI5
aI01
aI01
aI00
aasa(dp708
g24
I2
sg25
I8
sg26
I60
sg27
I2
sg28
I2
sg29
I2
sg30
F1.4518699645996094
sg31
F6.753941774368286
sg32
(lp709
I5
aI0
aI6
aI1
aI2
aI8
asg607
F17.936399459838867
sg34
g608
sg36
(lp710
(lp711
I-6
aI-5
aI2
aa(lp712
I-1
aI-10
aI2
aasg40
(lp713
(lp714
I10
aI-9
aI6
aI-8
aI00
aI01
aI00
aa(lp715
I9
aI-9
aI10
aI-8
aI01
aI00
aI01
aasa(dp716
g24
I2
sg25
I8
sg26
I114
sg27
I2
sg28
I2
sg29
I2
sg30
F2.752920150756836
sg31
F32.07216119766235
sg32
(lp717
I7
aI9
aI0
aI10
aI2
aI0
asg607
F36.02747201919556
sg34
g608
sg36
(lp718
(lp719
I-7
aI-6
aI2
aa(lp720
I7
aI2
aI2
aasg40
(lp721
(lp722
I5
aI2
aI8
aI9
aI01
aI01
aI00
aa(lp723
I-5
aI-10
aI-3
aI-6
aI01
aI01
aI00
aasa(dp724
g24
I2
sg25
I7
sg26
I91
sg27
I1
sg28
I2
sg29
I2
sg30
F2.205564260482788
sg31
F3.4635732173919678
sg32
(lp725
I9
aI10
aI0
aI8
aI7
aI0
asg607
F29.203715562820435
sg34
g608
sg36
(lp726
(lp727
I8
aI-2
aI2
aa(lp728
I-8
aI5
aI2
aasg40
(lp729
(lp730
I9
aI5
aI6
aI6
aI00
aI00
aI01
aasa(dp731
g24
I2
sg25
I7
sg26
I134
sg27
I2
sg28
I2
sg29
I1
sg30
F3.2745797634124756
sg31
F3.898838996887207
sg32
(lp732
I6
aI1
aI10
aI10
aI5
aI1
asg607
F45.75534677505493
sg34
g608
sg36
(lp733
(lp734
I-1
aI8
aI2
aa(lp735
I-8
aI10
aI2
aasg40
(lp736
(lp737
I-8
aI0
aI2
aI3
aI01
aI00
aI00
aa(lp738
I7
aI-2
aI3
aI4
aI01
aI00
aI01
aasa(dp739
g24
I2
sg25
I7
sg26
I116
sg27
I2
sg28
I1
sg29
I2
sg30
F2.7910704612731934
sg31
F4.05465030670166
sg32
(lp740
I2
aI7
aI1
aI3
aI10
aI10
asg607
F40.41219449043274
sg34
g608
sg36
(lp741
(lp742
I0
aI3
aI2
aa(lp743
I10
aI-2
aI2
aasg40
(lp744
(lp745
I1
aI-7
aI-3
aI3
aI00
aI01
aI00
aa(lp746
I-7
aI-6
aI-2
aI-1
aI00
aI01
aI00
aasa(dp747
g24
I2
sg25
I8
sg26
I145
sg27
I2
sg28
I2
sg29
I2
sg30
F3.5179812908172607
sg31
F7.264946699142456
sg32
(lp748
I5
aI10
aI10
aI5
aI10
aI9
asg607
F51.46943521499634
sg34
g608
sg36
(lp749
(lp750
I-5
aI3
aI2
aa(lp751
I-9
aI3
aI2
aasg40
(lp752
(lp753
I-5
aI-10
aI-8
aI7
aI00
aI00
aI01
aa(lp754
I-5
aI-10
aI1
aI1
aI01
aI01
aI00
aasa(dp755
g24
I2
sg25
I8
sg26
I131
sg27
I2
sg28
I2
sg29
I2
sg30
F3.1923182010650635
sg31
F87.73997616767883
sg32
(lp756
I4
aI1
aI4
aI1
aI7
aI10
asg607
F48.26998019218445
sg34
g608
sg36
(lp757
(lp758
I-1
aI2
aI2
aa(lp759
I8
aI7
aI2
aasg40
(lp760
(lp761
I-4
aI-8
aI-8
aI3
aI01
aI01
aI00
aa(lp762
I-2
aI-8
aI-10
aI5
aI01
aI01
aI01
aasa(dp763
g24
I2
sg25
I8
sg26
I112
sg27
I2
sg28
I2
sg29
I2
sg30
F2.716616630554199
sg31
F30.91133713722229
sg32
(lp764
I0
aI4
aI8
aI4
aI6
aI0
asg607
F42.071335792541504
sg34
g608
sg36
(lp765
(lp766
I8
aI3
aI2
aa(lp767
I3
aI-4
aI2
aasg40
(lp768
(lp769
I-2
aI5
aI10
aI9
aI00
aI01
aI01
aa(lp770
I2
aI7
aI-7
aI8
aI00
aI00
aI00
aasa(dp771
g24
I2
sg25
I8
sg26
I132
sg27
I2
sg28
I2
sg29
I2
sg30
F3.204916000366211
sg31
F5.166537284851074
sg32
(lp772
I8
aI8
aI10
aI8
aI7
aI4
asg607
F51.86509871482849
sg34
g608
sg36
(lp773
(lp774
I-9
aI6
aI2
aa(lp775
I-1
aI8
aI2
aasg40
(lp776
(lp777
I10
aI-10
aI-2
aI0
aI01
aI01
aI01
aa(lp778
I3
aI-3
aI-9
aI9
aI00
aI00
aI01
aasa(dp779
g24
I2
sg25
I6
sg26
I78
sg27
I1
sg28
I1
sg29
I2
sg30
F1.8799543380737305
sg31
F0.6409692764282227
sg32
(lp780
I5
aI9
aI0
aI0
aI0
aI3
asg607
F30.677931547164917
sg34
g608
sg36
(lp781
(lp782
I6
aI9
aI2
aa(lp783
I9
aI10
aI2
aasg40
(lp784
(lp785
I-8
aI-4
aI9
aI-1
aI00
aI00
aI00
aasa(dp786
g24
I2
sg25
I8
sg26
I94
sg27
I2
sg28
I2
sg29
I2
sg30
F2.2754313945770264
sg31
F9.07337474822998
sg32
(lp787
I8
aI5
aI0
aI5
aI9
aI0
asg607
F38.07522773742676
sg34
g608
sg36
(lp788
(lp789
I-2
aI0
aI2
aa(lp790
I-3
aI0
aI2
aasg40
(lp791
(lp792
I7
aI3
aI-6
aI7
aI00
aI01
aI01
aa(lp793
I7
aI2
aI-1
aI2
aI01
aI00
aI01
aasa(dp794
g24
I2
sg25
I6
sg26
I135
sg27
I1
sg28
I2
sg29
I1
sg30
F3.294020652770996
sg31
F1.9091250896453857
sg32
(lp795
I8
aI1
aI4
aI9
aI0
aI10
asg607
F57.71537470817566
sg34
g608
sg36
(lp796
(lp797
I-7
aI-2
aI2
aa(lp798
I3
aI-3
aI2
aasg40
(lp799
(lp800
I10
aI-5
aI-7
aI4
aI01
aI00
aI01
aasa(dp801
g24
I2
sg25
I7
sg26
I135
sg27
I2
sg28
I2
sg29
I1
sg30
F3.281067371368408
sg31
F1.6075468063354492
sg32
(lp802
I10
aI6
aI8
aI8
aI9
aI4
asg607
F58.59025192260742
sg34
g608
sg36
(lp803
(lp804
I6
aI9
aI2
aa(lp805
I1
aI-8
aI2
aasg40
(lp806
(lp807
I-9
aI-1
aI3
aI9
aI01
aI00
aI00
aa(lp808
I-3
aI-10
aI-10
aI2
aI00
aI00
aI01
aasa(dp809
g24
I2
sg25
I8
sg26
I132
sg27
I2
sg28
I2
sg29
I2
sg30
F3.2006266117095947
sg31
F10.053343534469604
sg32
(lp810
I9
aI0
aI10
aI8
aI4
aI5
asg607
F57.88424468040466
sg34
g608
sg36
(lp811
(lp812
I-1
aI10
aI2
aa(lp813
I1
aI5
aI2
aasg40
(lp814
(lp815
I-1
aI6
aI-8
aI9
aI00
aI00
aI00
aa(lp816
I3
aI-4
aI-7
aI-4
aI00
aI01
aI00
aasa(dp817
g24
I2
sg25
I8
sg26
I107
sg27
I2
sg28
I2
sg29
I2
sg30
F2.6040165424346924
sg31
F54.870885610580444
sg32
(lp818
I2
aI1
aI10
aI0
aI3
aI5
asg607
F48.181265115737915
sg34
g608
sg36
(lp819
(lp820
I9
aI-1
aI2
aa(lp821
I-8
aI-8
aI2
aasg40
(lp822
(lp823
I-10
aI5
aI-3
aI10
aI01
aI00
aI01
aa(lp824
I8
aI-2
aI-6
aI7
aI01
aI00
aI00
aasa(dp825
g24
I2
sg25
I8
sg26
I85
sg27
I2
sg28
I2
sg29
I2
sg30
F2.0642635822296143
sg31
F13.003765344619751
sg32
(lp826
I1
aI6
aI0
aI9
aI7
aI9
asg607
F38.89903903007507
sg34
g608
sg36
(lp827
(lp828
I1
aI5
aI2
aa(lp829
I1
aI-10
aI2
aasg40
(lp830
(lp831
I7
aI-6
aI4
aI10
aI00
aI00
aI01
aa(lp832
I4
aI-8
aI3
aI7
aI00
aI01
aI01
aasa(dp833
g24
I2
sg25
I8
sg26
I92
sg27
I2
sg28
I2
sg29
I2
sg30
F2.2347190380096436
sg31
F2.116462469100952
sg32
(lp834
I3
aI9
aI8
aI10
aI6
aI0
asg607
F42.751152753829956
sg34
g608
sg36
(lp835
(lp836
I1
aI2
aI2
aa(lp837
I-2
aI-1
aI2
aasg40
(lp838
(lp839
I7
aI-2
aI10
aI9
aI00
aI00
aI01
aa(lp840
I6
aI3
aI3
aI4
aI01
aI00
aI00
aasa(dp841
g24
I2
sg25
I8
sg26
I116
sg27
I2
sg28
I2
sg29
I2
sg30
F2.817460536956787
sg31
F23.834359884262085
sg32
(lp842
I2
aI6
aI10
aI8
aI8
aI6
asg607
F53.49610185623169
sg34
g608
sg36
(lp843
(lp844
I2
aI-9
aI2
aa(lp845
I-1
aI-7
aI2
aasg40
(lp846
(lp847
I8
aI-10
aI-9
aI2
aI01
aI01
aI01
aa(lp848
I8
aI-4
aI7
aI3
aI01
aI00
aI01
aasa(dp849
g24
I2
sg25
I8
sg26
I146
sg27
I2
sg28
I2
sg29
I2
sg30
F3.555455207824707
sg31
F5.433123588562012
sg32
(lp850
I9
aI5
aI10
aI9
aI7
aI10
asg607
F70.44783520698547
sg34
g608
sg36
(lp851
(lp852
I-2
aI-10
aI2
aa(lp853
I5
aI0
aI2
aasg40
(lp854
(lp855
I-7
aI-1
aI1
aI1
aI00
aI01
aI00
aa(lp856
I8
aI-4
aI-9
aI-4
aI00
aI01
aI00
aasa(dp857
g24
I2
sg25
I6
sg26
I132
sg27
I1
sg28
I1
sg29
I2
sg30
F3.2165067195892334
sg31
F2.2962448596954346
sg32
(lp858
I0
aI7
aI8
aI10
aI9
aI7
asg607
F65.30831003189087
sg34
g608
sg36
(lp859
(lp860
I5
aI-3
aI2
aa(lp861
I-5
aI10
aI2
aasg40
(lp862
(lp863
I8
aI-8
aI1
aI-1
aI00
aI01
aI01
aasa(dp864
g24
I2
sg25
I8
sg26
I150
sg27
I2
sg28
I2
sg29
I2
sg30
F3.6111087799072266
sg31
F147.4238953590393
sg32
(lp865
I6
aI4
aI9
aI6
aI2
aI9
asg607
F74.27863264083862
sg34
g608
sg36
(lp866
(lp867
I0
aI10
aI2
aa(lp868
I-7
aI-4
aI2
aasg40
(lp869
(lp870
I-8
aI3
aI0
aI8
aI01
aI00
aI01
aa(lp871
I-10
aI-9
aI-7
aI-8
aI01
aI01
aI00
aasa(dp872
g24
I2
sg25
I8
sg26
I102
sg27
I2
sg28
I2
sg29
I2
sg30
F2.4551730155944824
sg31
F12.066135168075562
sg32
(lp873
I2
aI1
aI6
aI5
aI9
aI8
asg607
F52.04683995246887
sg34
g608
sg36
(lp874
(lp875
I-1
aI-3
aI2
aa(lp876
I5
aI4
aI2
aasg40
(lp877
(lp878
I10
aI-10
aI9
aI-3
aI01
aI01
aI01
aa(lp879
I-1
aI0
aI-6
aI2
aI00
aI00
aI01
aasa(dp880
g24
I2
sg25
I7
sg26
I95
sg27
I2
sg28
I1
sg29
I2
sg30
F2.304870843887329
sg31
F3.750413656234741
sg32
(lp881
I8
aI10
aI2
aI0
aI2
aI4
asg607
F47.99372053146362
sg34
g608
sg36
(lp882
(lp883
I3
aI-4
aI2
aa(lp884
I4
aI0
aI2
aasg40
(lp885
(lp886
I0
aI8
aI-3
aI10
aI00
aI01
aI00
aa(lp887
I-2
aI-6
aI10
aI10
aI00
aI00
aI01
aasa(dp888
g24
I2
sg25
I8
sg26
I134
sg27
I2
sg28
I2
sg29
I2
sg30
F3.270922899246216
sg31
F30.20488166809082
sg32
(lp889
I5
aI5
aI10
aI9
aI6
aI7
asg607
F69.68600535392761
sg34
g608
sg36
(lp890
(lp891
I0
aI-10
aI2
aa(lp892
I2
aI1
aI2
aasg40
(lp893
(lp894
I8
aI-1
aI5
aI0
aI01
aI01
aI01
aa(lp895
I6
aI-4
aI1
aI2
aI01
aI00
aI01
aasa(dp896
g24
I2
sg25
I8
sg26
I99
sg27
I2
sg28
I2
sg29
I2
sg30
F2.397599220275879
sg31
F1.6323225498199463
sg32
(lp897
I2
aI1
aI0
aI5
aI10
aI7
asg607
F51.732211112976074
sg34
g608
sg36
(lp898
(lp899
I-3
aI2
aI2
aa(lp900
I0
aI10
aI2
aasg40
(lp901
(lp902
I3
aI4
aI7
aI8
aI00
aI00
aI00
aa(lp903
I9
aI-5
aI5
aI8
aI00
aI00
aI00
aasa(dp904
g24
I2
sg25
I8
sg26
I125
sg27
I2
sg28
I2
sg29
I2
sg30
F3.0413899421691895
sg31
F5.2825541496276855
sg32
(lp905
I1
aI3
aI5
aI8
aI10
aI5
asg607
F67.11598539352417
sg34
g608
sg36
(lp906
(lp907
I-10
aI9
aI2
aa(lp908
I10
aI3
aI2
aasg40
(lp909
(lp910
I-1
aI-10
aI-3
aI5
aI01
aI00
aI00
aa(lp911
I2
aI-4
aI-8
aI6
aI01
aI00
aI00
aasa(dp912
g24
I2
sg25
I8
sg26
I88
sg27
I2
sg28
I2
sg29
I2
sg30
F2.100612163543701
sg31
F17.759093523025513
sg32
(lp913
I0
aI0
aI6
aI9
aI8
aI0
asg607
F48.00180268287659
sg34
g608
sg36
(lp914
(lp915
I8
aI-6
aI2
aa(lp916
I5
aI-9
aI2
aasg40
(lp917
(lp918
I10
aI8
aI5
aI9
aI00
aI00
aI01
aa(lp919
I-1
aI-10
aI2
aI-10
aI01
aI01
aI00
aasa(dp920
g24
I2
sg25
I8
sg26
I172
sg27
I2
sg28
I2
sg29
I2
sg30
F4.1952080726623535
sg31
F9.548562288284302
sg32
(lp921
I4
aI9
aI9
aI3
aI7
aI10
asg607
F94.84996175765991
sg34
g608
sg36
(lp922
(lp923
I9
aI-2
aI2
aa(lp924
I8
aI-3
aI2
aasg40
(lp925
(lp926
I5
aI6
aI8
aI9
aI00
aI01
aI00
aa(lp927
I8
aI0
aI-10
aI1
aI01
aI00
aI00
aasa(dp928
g24
I2
sg25
I8
sg26
I107
sg27
I2
sg28
I2
sg29
I2
sg30
F2.6251072883605957
sg31
F11.50145149230957
sg32
(lp929
I1
aI4
aI4
aI5
aI10
aI10
asg607
F59.447569608688354
sg34
g608
sg36
(lp930
(lp931
I-9
aI-3
aI2
aa(lp932
I5
aI4
aI2
aasg40
(lp933
(lp934
I-2
aI-3
aI-7
aI5
aI00
aI00
aI00
aa(lp935
I6
aI-9
aI1
aI1
aI00
aI01
aI01
aasa(dp936
g24
I2
sg25
I8
sg26
I134
sg27
I2
sg28
I2
sg29
I2
sg30
F3.259483814239502
sg31
F5.668413400650024
sg32
(lp937
I1
aI9
aI6
aI1
aI10
aI3
asg607
F75.49487257003784
sg34
g608
sg36
(lp938
(lp939
I7
aI-10
aI2
aa(lp940
I9
aI3
aI2
aasg40
(lp941
(lp942
I2
aI7
aI3
aI10
aI00
aI01
aI00
aa(lp943
I3
aI-9
aI10
aI-8
aI01
aI01
aI00
aasa(dp944
g24
I2
sg25
I8
sg26
I101
sg27
I2
sg28
I2
sg29
I2
sg30
F2.441831350326538
sg31
F10.877004146575928
sg32
(lp945
I9
aI4
aI5
aI7
aI2
aI2
asg607
F58.60789346694946
sg34
g608
sg36
(lp946
(lp947
I1
aI2
aI2
aa(lp948
I7
aI4
aI2
aasg40
(lp949
(lp950
I-3
aI3
aI10
aI9
aI00
aI00
aI00
aa(lp951
I1
aI-1
aI9
aI10
aI01
aI00
aI01
aasa(dp952
g24
I2
sg25
I7
sg26
I75
sg27
I2
sg28
I1
sg29
I2
sg30
F1.8505377769470215
sg31
F3.9936633110046387
sg32
(lp953
I0
aI2
aI0
aI1
aI2
aI6
asg607
F44.39763379096985
sg34
g608
sg36
(lp954
(lp955
I5
aI-7
aI2
aa(lp956
I5
aI0
aI2
aasg40
(lp957
(lp958
I3
aI-2
aI5
aI10
aI00
aI00
aI00
aa(lp959
I10
aI5
aI-2
aI9
aI00
aI00
aI01
aasa(dp960
g24
I2
sg25
I8
sg26
I109
sg27
I2
sg28
I2
sg29
I2
sg30
F2.6882383823394775
sg31
F27.106739282608032
sg32
(lp961
I1
aI4
aI8
aI5
aI7
aI10
asg607
F64.89080548286438
sg34
g608
sg36
(lp962
(lp963
I-3
aI-1
aI2
aa(lp964
I-10
aI-2
aI2
aasg40
(lp965
(lp966
I-6
aI-3
aI-5
aI3
aI01
aI01
aI00
aa(lp967
I4
aI-3
aI-4
aI3
aI01
aI01
aI00
aasa(dp968
g24
I2
sg25
I6
sg26
I45
sg27
I1
sg28
I2
sg29
I1
sg30
F1.0860106945037842
sg31
F0.34805941581726074
sg32
(lp969
I2
aI1
aI9
aI5
aI0
aI3
asg607
F27.9372079372406
sg34
g608
sg36
(lp970
(lp971
I-2
aI6
aI2
aa(lp972
I5
aI7
aI2
aasg40
(lp973
(lp974
I-7
aI-10
aI-10
aI-9
aI00
aI00
aI00
aasa(dp975
g24
I2
sg25
I8
sg26
I105
sg27
I2
sg28
I2
sg29
I2
sg30
F2.5559163093566895
sg31
F3.521406412124634
sg32
(lp976
I6
aI9
aI2
aI8
aI5
aI0
asg607
F64.16297197341919
sg34
g608
sg36
(lp977
(lp978
I10
aI-9
aI2
aa(lp979
I0
aI10
aI2
aasg40
(lp980
(lp981
I10
aI-7
aI-6
aI10
aI01
aI01
aI00
aa(lp982
I-3
aI-8
aI1
aI5
aI00
aI00
aI00
aasa(dp983
g24
I2
sg25
I7
sg26
I81
sg27
I2
sg28
I2
sg29
I1
sg30
F2.0101253986358643
sg31
F9.154545545578003
sg32
(lp984
I4
aI3
aI4
aI7
aI8
aI0
asg607
F51.14724922180176
sg34
g608
sg36
(lp985
(lp986
I-6
aI6
aI2
aa(lp987
I10
aI5
aI2
aasg40
(lp988
(lp989
I3
aI-5
aI-7
aI-1
aI01
aI00
aI01
aa(lp990
I-5
aI-2
aI8
aI7
aI00
aI00
aI01
aasa(dp991
g24
I2
sg25
I8
sg26
I94
sg27
I2
sg28
I2
sg29
I2
sg30
F2.286454916000366
sg31
F4.446419954299927
sg32
(lp992
I2
aI8
aI10
aI3
aI5
aI2
asg607
F59.601367712020874
sg34
g608
sg36
(lp993
(lp994
I-8
aI7
aI2
aa(lp995
I2
aI-10
aI2
aasg40
(lp996
(lp997
I6
aI-8
aI4
aI0
aI00
aI00
aI00
aa(lp998
I9
aI1
aI-9
aI5
aI00
aI01
aI00
aasa(dp999
g24
I2
sg25
I8
sg26
I164
sg27
I2
sg28
I2
sg29
I2
sg30
F4.021200895309448
sg31
F12.935732126235962
sg32
(lp1000
I8
aI8
aI6
aI9
aI6
aI10
asg607
F103.78324437141418
sg34
g608
sg36
(lp1001
(lp1002
I-2
aI8
aI2
aa(lp1003
I5
aI8
aI2
aasg40
(lp1004
(lp1005
I-5
aI-3
aI6
aI4
aI00
aI01
aI01
aa(lp1006
I1
aI-2
aI10
aI2
aI01
aI00
aI01
aasa(dp1007
g24
I2
sg25
I8
sg26
I99
sg27
I2
sg28
I2
sg29
I2
sg30
F2.410402297973633
sg31
F8.874068260192871
sg32
(lp1008
I5
aI2
aI9
aI1
aI7
aI1
asg607
F61.714879274368286
sg34
g608
sg36
(lp1009
(lp1010
I10
aI-10
aI2
aa(lp1011
I-3
aI9
aI2
aasg40
(lp1012
(lp1013
I7
aI-8
aI-10
aI6
aI01
aI00
aI00
aa(lp1014
I3
aI-2
aI5
aI3
aI00
aI01
aI01
aasa(dp1015
g24
I2
sg25
I7
sg26
I91
sg27
I1
sg28
I2
sg29
I2
sg30
F2.183556079864502
sg31
F8.034544944763184
sg32
(lp1016
I2
aI2
aI0
aI8
aI5
aI10
asg607
F56.98434567451477
sg34
g608
sg36
(lp1017
(lp1018
I-2
aI0
aI2
aa(lp1019
I9
aI-7
aI2
aasg40
(lp1020
(lp1021
I-1
aI-7
aI0
aI4
aI00
aI00
aI01
aasa(dp1022
g24
I2
sg25
I8
sg26
I107
sg27
I2
sg28
I2
sg29
I2
sg30
F2.5730581283569336
sg31
F34.68058729171753
sg32
(lp1023
I5
aI0
aI0
aI2
aI8
aI6
asg607
F67.43454337120056
sg34
g608
sg36
(lp1024
(lp1025
I6
aI4
aI2
aa(lp1026
I-2
aI0
aI2
aasg40
(lp1027
(lp1028
I1
aI-10
aI-4
aI3
aI00
aI01
aI01
aa(lp1029
I8
aI3
aI-1
aI4
aI01
aI00
aI00
aasa(dp1030
g24
I2
sg25
I8
sg26
I71
sg27
I2
sg28
I2
sg29
I2
sg30
F1.717839241027832
sg31
F1.1903080940246582
sg32
(lp1031
I5
aI0
aI4
aI8
aI6
aI0
asg607
F46.958096504211426
sg34
g608
sg36
(lp1032
(lp1033
I-10
aI-5
aI2
aa(lp1034
I0
aI4
aI2
aasg40
(lp1035
(lp1036
I-4
aI-1
aI-7
aI-1
aI01
aI00
aI00
aa(lp1037
I-1
aI1
aI-1
aI1
aI01
aI01
aI00
aasa(dp1038
g24
I2
sg25
I8
sg26
I83
sg27
I2
sg28
I2
sg29
I2
sg30
F2.010148286819458
sg31
F5.641700029373169
sg32
(lp1039
I6
aI6
aI7
aI2
aI1
aI0
asg607
F55.75164294242859
sg34
g608
sg36
(lp1040
(lp1041
I10
aI0
aI2
aa(lp1042
I-1
aI8
aI2
aasg40
(lp1043
(lp1044
I-6
aI7
aI-2
aI7
aI01
aI00
aI00
aa(lp1045
I-4
aI-1
aI-6
aI3
aI01
aI00
aI00
aasa(dp1046
g24
I2
sg25
I6
sg26
I110
sg27
I1
sg28
I2
sg29
I1
sg30
F2.6612250804901123
sg31
F1.0942003726959229
sg32
(lp1047
I1
aI2
aI10
aI8
aI0
aI10
asg607
F73.71319532394409
sg34
g608
sg36
(lp1048
(lp1049
I3
aI8
aI2
aa(lp1050
I-6
aI8
aI2
aasg40
(lp1051
(lp1052
I-8
aI6
aI-5
aI7
aI00
aI00
aI00
aasa(dp1053
g24
I2
sg25
I8
sg26
I81
sg27
I2
sg28
I2
sg29
I2
sg30
F1.951880931854248
sg31
F10.606443643569946
sg32
(lp1054
I1
aI5
aI0
aI1
aI5
aI5
asg607
F53.32106423377991
sg34
g608
sg36
(lp1055
(lp1056
I1
aI8
aI2
aa(lp1057
I-1
aI-10
aI2
aasg40
(lp1058
(lp1059
I0
aI-7
aI0
aI3
aI01
aI01
aI00
aa(lp1060
I1
aI-7
aI4
aI1
aI00
aI00
aI01
aasa(dp1061
g24
I2
sg25
I8
sg26
I89
sg27
I2
sg28
I2
sg29
I2
sg30
F2.1484873294830322
sg31
F172.81373620033264
sg32
(lp1062
I1
aI9
aI10
aI3
aI7
aI5
asg607
F58.84530425071716
sg34
g608
sg36
(lp1063
(lp1064
I-3
aI-8
aI2
aa(lp1065
I4
aI-8
aI2
aasg40
(lp1066
(lp1067
I7
aI-10
aI-1
aI6
aI00
aI01
aI00
aa(lp1068
I2
aI-5
aI-2
aI1
aI01
aI00
aI01
aasa(dp1069
g24
I2
sg25
I8
sg26
I86
sg27
I2
sg28
I2
sg29
I2
sg30
F2.0740561485290527
sg31
F13.32247018814087
sg32
(lp1070
I5
aI3
aI0
aI6
aI7
aI2
asg607
F56.892249584198
sg34
g608
sg36
(lp1071
(lp1072
I5
aI6
aI2
aa(lp1073
I3
aI-4
aI2
aasg40
(lp1074
(lp1075
I-1
aI-4
aI-2
aI8
aI00
aI00
aI00
aa(lp1076
I-4
aI-5
aI5
aI10
aI01
aI00
aI01
aasa(dp1077
g24
I2
sg25
I8
sg26
I112
sg27
I2
sg28
I2
sg29
I2
sg30
F2.6983025074005127
sg31
F22.824382543563843
sg32
(lp1078
I5
aI0
aI4
aI7
aI5
aI0
asg607
F74.56699776649475
sg34
g608
sg36
(lp1079
(lp1080
I-7
aI-9
aI2
aa(lp1081
I-5
aI1
aI2
aasg40
(lp1082
(lp1083
I2
aI-2
aI10
aI5
aI00
aI00
aI01
aa(lp1084
I7
aI-8
aI-3
aI4
aI01
aI01
aI01
aasa(dp1085
g24
I2
sg25
I8
sg26
I80
sg27
I2
sg28
I2
sg29
I2
sg30
F1.9201748371124268
sg31
F58.30832576751709
sg32
(lp1086
I10
aI9
aI6
aI4
aI4
aI0
asg607
F53.88013029098511
sg34
g608
sg36
(lp1087
(lp1088
I1
aI8
aI2
aa(lp1089
I-10
aI0
aI2
aasg40
(lp1090
(lp1091
I-2
aI-1
aI-5
aI1
aI01
aI00
aI01
aa(lp1092
I6
aI5
aI-2
aI7
aI01
aI00
aI00
aasa(dp1093
g24
I2
sg25
I8
sg26
I108
sg27
I2
sg28
I2
sg29
I2
sg30
F2.6547136306762695
sg31
F16.556933879852295
sg32
(lp1094
I6
aI1
aI2
aI3
aI1
aI10
asg607
F73.53307557106018
sg34
g608
sg36
(lp1095
(lp1096
I-5
aI-5
aI2
aa(lp1097
I-6
aI-8
aI2
aasg40
(lp1098
(lp1099
I5
aI-3
aI-10
aI1
aI01
aI00
aI01
aa(lp1100
I-2
aI0
aI1
aI10
aI01
aI00
aI00
aasa(dp1101
g24
I2
sg25
I8
sg26
I102
sg27
I2
sg28
I2
sg29
I2
sg30
F2.4760026931762695
sg31
F43.360305309295654
sg32
(lp1102
I7
aI10
aI0
aI3
aI8
aI1
asg607
F71.15487003326416
sg34
g608
sg36
(lp1103
(lp1104
I1
aI-2
aI2
aa(lp1105
I-5
aI-5
aI2
aasg40
(lp1106
(lp1107
I1
aI-8
aI-6
aI10
aI00
aI00
aI00
aa(lp1108
I4
aI2
aI-6
aI3
aI00
aI01
aI01
aasa(dp1109
g24
I2
sg25
I7
sg26
I57
sg27
I1
sg28
I2
sg29
I2
sg30
F1.3644540309906006
sg31
F0.4229166507720947
sg32
(lp1110
I9
aI0
aI7
aI7
aI0
aI4
asg607
F39.41258931159973
sg34
g608
sg36
(lp1111
(lp1112
I-6
aI-3
aI2
aa(lp1113
I7
aI8
aI2
aasg40
(lp1114
(lp1115
I-1
aI5
aI9
aI5
aI00
aI00
aI00
aasa(dp1116
g24
I2
sg25
I8
sg26
I80
sg27
I2
sg28
I2
sg29
I2
sg30
F1.9329288005828857
sg31
F39.339221715927124
sg32
(lp1117
I5
aI10
aI3
aI5
aI6
aI3
asg607
F55.49244475364685
sg34
g608
sg36
(lp1118
(lp1119
I-4
aI-6
aI2
aa(lp1120
I7
aI10
aI2
aasg40
(lp1121
(lp1122
I6
aI-4
aI-6
aI3
aI01
aI00
aI01
aa(lp1123
I-10
aI-5
aI-9
aI-1
aI00
aI01
aI01
aasa(dp1124
g24
I2
sg25
I6
sg26
I109
sg27
I1
sg28
I1
sg29
I2
sg30
F2.63936448097229
sg31
F2.927952527999878
sg32
(lp1125
I7
aI9
aI4
aI2
aI1
aI10
asg607
F77.00846481323242
sg34
g608
sg36
(lp1126
(lp1127
I2
aI9
aI2
aa(lp1128
I7
aI3
aI2
aasg40
(lp1129
(lp1130
I-10
aI1
aI-5
aI1
aI00
aI01
aI00
aasa(dp1131
g24
I2
sg25
I7
sg26
I81
sg27
I2
sg28
I1
sg29
I2
sg30
F1.959686279296875
sg31
F7.871620178222656
sg32
(lp1132
I4
aI6
aI3
aI7
aI1
aI3
asg607
F57.81746530532837
sg34
g608
sg36
(lp1133
(lp1134
I8
aI1
aI2
aa(lp1135
I7
aI0
aI2
aasg40
(lp1136
(lp1137
I6
aI-9
aI-1
aI10
aI00
aI00
aI01
aa(lp1138
I10
aI4
aI0
aI7
aI00
aI00
aI01
aasa(dp1139
g24
I2
sg25
I6
sg26
I90
sg27
I1
sg28
I2
sg29
I1
sg30
F2.1576194763183594
sg31
F3.296922206878662
sg32
(lp1140
I4
aI0
aI9
aI6
aI3
aI7
asg607
F63.64147210121155
sg34
g608
sg36
(lp1141
(lp1142
I-2
aI-5
aI2
aa(lp1143
I-5
aI1
aI2
aasg40
(lp1144
(lp1145
I-10
aI-3
aI-4
aI10
aI00
aI00
aI01
aasa(dp1146
g24
I2
sg25
I8
sg26
I88
sg27
I2
sg28
I2
sg29
I2
sg30
F2.1439785957336426
sg31
F0.8157322406768799
sg32
(lp1147
I5
aI0
aI9
aI5
aI0
aI10
asg607
F64.20940160751343
sg34
g608
sg36
(lp1148
(lp1149
I1
aI-9
aI2
aa(lp1150
I-7
aI3
aI2
aasg40
(lp1151
(lp1152
I-6
aI-6
aI10
aI0
aI01
aI00
aI01
aa(lp1153
I-9
aI5
aI-9
aI5
aI01
aI00
aI00
aasaa(lp1154
(dp1155
g3
I2
sg4
I8
sg5
I47
sg6
(lp1156
(lp1157
I6
aI-3
aI8
aI3
aI01
aI00
aI00
aa(lp1158
I-8
aI-5
aI-2
aI10
aI01
aI01
aI00
aasg10
I2
sg11
I2
sg12
I2
sg13
F1.133251428604126
sg14
F6.0156004428863525
sg15
(lp1159
I0
aI9
aI7
aI3
aI1
aI6
asg600
F7.273399353027344
sg17
(lp1160
(lp1161
I10
aI-6
aI2
aa(lp1162
I-5
aI-5
aI2
aasg21
S'r_cegis'
p1163
sa(dp1164
g24
I2
sg25
I7
sg26
I58
sg27
I2
sg28
I1
sg29
I2
sg30
F1.5005624294281006
sg31
F3.4116575717926025
sg32
(lp1165
I10
aI0
aI10
aI5
aI10
aI7
asg607
F9.305759191513062
sg34
S'r_cegis'
p1166
sg36
(lp1167
(lp1168
I2
aI-7
aI2
aa(lp1169
I-7
aI-10
aI2
aasg40
(lp1170
(lp1171
I-1
aI7
aI10
aI8
aI00
aI00
aI00
aa(lp1172
I-6
aI4
aI4
aI7
aI00
aI01
aI01
aasa(dp1173
g24
I2
sg25
I8
sg26
I55
sg27
I2
sg28
I2
sg29
I2
sg30
F1.403214931488037
sg31
F47.6887583732605
sg32
(lp1174
I6
aI8
aI7
aI10
aI7
aI7
asg607
F9.496963500976562
sg34
g1166
sg36
(lp1175
(lp1176
I-2
aI-9
aI2
aa(lp1177
I2
aI-5
aI2
aasg40
(lp1178
(lp1179
I-3
aI4
aI-10
aI7
aI01
aI01
aI00
aa(lp1180
I-7
aI-10
aI-8
aI3
aI00
aI01
aI01
aasa(dp1181
g24
I2
sg25
I8
sg26
I40
sg27
I2
sg28
I2
sg29
I2
sg30
F1.7356934547424316
sg31
F1.3482232093811035
sg32
(lp1182
I6
aI10
aI6
aI0
aI0
aI0
asg607
F9.161423444747925
sg34
g1166
sg36
(lp1183
(lp1184
I-6
aI0
aI2
aa(lp1185
I10
aI8
aI2
aasg40
(lp1186
(lp1187
I-8
aI9
aI7
aI9
aI01
aI00
aI00
aa(lp1188
I4
aI7
aI5
aI7
aI01
aI01
aI00
aasa(dp1189
g24
I2
sg25
I7
sg26
I48
sg27
I1
sg28
I2
sg29
I2
sg30
F1.200192928314209
sg31
F5.825385570526123
sg32
(lp1190
I8
aI9
aI8
aI3
aI6
aI6
asg607
F9.270925998687744
sg34
g1166
sg36
(lp1191
(lp1192
I-2
aI-6
aI2
aa(lp1193
I9
aI-6
aI2
aasg40
(lp1194
(lp1195
I10
aI9
aI3
aI10
aI00
aI00
aI00
aasa(dp1196
g24
I2
sg25
I8
sg26
I67
sg27
I2
sg28
I2
sg29
I2
sg30
F1.7115046977996826
sg31
F121.47823214530945
sg32
(lp1197
I9
aI2
aI10
aI8
aI0
aI2
asg607
F14.211113452911377
sg34
g1166
sg36
(lp1198
(lp1199
I1
aI10
aI2
aa(lp1200
I-5
aI1
aI2
aasg40
(lp1201
(lp1202
I4
aI4
aI3
aI7
aI00
aI01
aI00
aa(lp1203
I7
aI0
aI-1
aI4
aI01
aI00
aI01
aasa(dp1204
g24
I2
sg25
I8
sg26
I58
sg27
I2
sg28
I2
sg29
I2
sg30
F1.4767796993255615
sg31
F29.274131298065186
sg32
(lp1205
I1
aI7
aI7
aI5
aI9
aI10
asg607
F13.295512437820435
sg34
g1166
sg36
(lp1206
(lp1207
I-3
aI-4
aI2
aa(lp1208
I10
aI-8
aI2
aasg40
(lp1209
(lp1210
I3
aI-6
aI4
aI1
aI00
aI01
aI00
aa(lp1211
I-3
aI4
aI-3
aI7
aI01
aI01
aI00
aasa(dp1212
g24
I2
sg25
I8
sg26
I74
sg27
I2
sg28
I2
sg29
I2
sg30
F1.8486313819885254
sg31
F589.0374743938446
sg32
(lp1213
I7
aI2
aI5
aI8
aI3
aI0
asg607
F17.004160404205322
sg34
g1166
sg36
(lp1214
(lp1215
I0
aI-6
aI2
aa(lp1216
I2
aI9
aI2
aasg40
(lp1217
(lp1218
I-6
aI3
aI-1
aI8
aI00
aI00
aI00
aa(lp1219
I-10
aI-1
aI1
aI5
aI01
aI00
aI00
aasa(dp1220
g24
I2
sg25
I8
sg26
I60
sg27
I2
sg28
I2
sg29
I2
sg30
F1.4608290195465088
sg31
F204.44723773002625
sg32
(lp1221
I4
aI10
aI7
aI5
aI0
aI10
asg607
F15.084271430969238
sg34
g1166
sg36
(lp1222
(lp1223
I-8
aI-9
aI2
aa(lp1224
I-6
aI-5
aI2
aasg40
(lp1225
(lp1226
I-10
aI-9
aI-1
aI-9
aI00
aI00
aI00
aa(lp1227
I-10
aI-7
aI3
aI-2
aI00
aI01
aI01
aasa(dp1228
g24
I2
sg25
I7
sg26
I59
sg27
I2
sg28
I1
sg29
I2
sg30
F1.438258409500122
sg31
F18.391000032424927
sg32
(lp1229
I7
aI6
aI0
aI0
aI8
aI0
asg607
F15.037878513336182
sg34
g1166
sg36
(lp1230
(lp1231
I9
aI10
aI2
aa(lp1232
I10
aI-7
aI2
aasg40
(lp1233
(lp1234
I7
aI-2
aI-4
aI9
aI00
aI01
aI00
aa(lp1235
I-3
aI-7
aI4
aI2
aI00
aI00
aI01
aasa(dp1236
g24
I2
sg25
I7
sg26
I60
sg27
I2
sg28
I1
sg29
I2
sg30
F1.4587688446044922
sg31
F12.701398372650146
sg32
(lp1237
I1
aI5
aI10
aI3
aI7
aI5
asg607
F16.17908811569214
sg34
g1166
sg36
(lp1238
(lp1239
I-10
aI-5
aI2
aa(lp1240
I-2
aI4
aI2
aasg40
(lp1241
(lp1242
I-7
aI-7
aI7
aI-2
aI00
aI00
aI00
aa(lp1243
I4
aI-10
aI1
aI5
aI00
aI01
aI01
aasa(dp1244
g24
I2
sg25
I8
sg26
I68
sg27
I2
sg28
I2
sg29
I2
sg30
F1.6524877548217773
sg31
F1394.7396447658539
sg32
(lp1245
I9
aI2
aI0
aI5
aI7
aI0
asg607
F18.60339093208313
sg34
g1166
sg36
(lp1246
(lp1247
I6
aI3
aI2
aa(lp1248
I5
aI9
aI2
aasg40
(lp1249
(lp1250
I2
aI-1
aI-1
aI8
aI00
aI01
aI01
aa(lp1251
I7
aI-5
aI-1
aI6
aI01
aI00
aI01
aasa(dp1252
g24
I2
sg25
I5
sg26
I32
sg27
I0
sg28
I2
sg29
I1
sg30
F0.7745866775512695
sg31
F0.4080467224121094
sg32
(lp1253
I6
aI0
aI10
aI1
aI8
aI7
asg607
F9.13778567314148
sg34
g1166
sg36
(lp1254
(lp1255
I0
aI1
aI2
aa(lp1256
I-6
aI-5
aI2
aasg40
(lp1257
sa(dp1258
g24
I2
sg25
I7
sg26
I42
sg27
I2
sg28
I1
sg29
I2
sg30
F1.0216667652130127
sg31
F0.7747802734375
sg32
(lp1259
I0
aI8
aI6
aI10
aI10
aI10
asg607
F12.301464319229126
sg34
g1166
sg36
(lp1260
(lp1261
I-4
aI-7
aI2
aa(lp1262
I9
aI3
aI2
aasg40
(lp1263
(lp1264
I7
aI-8
aI-10
aI3
aI00
aI00
aI00
aa(lp1265
I-9
aI-8
aI-10
aI5
aI00
aI00
aI00
aasa(dp1266
g24
I2
sg25
I8
sg26
I74
sg27
I2
sg28
I2
sg29
I2
sg30
F1.8000292778015137
sg31
F21.8149197101593
sg32
(lp1267
I0
aI5
aI6
aI2
aI1
aI0
asg607
F23.057125091552734
sg34
g1166
sg36
(lp1268
(lp1269
I-6
aI3
aI2
aa(lp1270
I-1
aI-2
aI2
aasg40
(lp1271
(lp1272
I10
aI-1
aI6
aI0
aI01
aI00
aI00
aa(lp1273
I9
aI-3
aI10
aI0
aI01
aI01
aI01
aasa(dp1274
g24
I2
sg25
I8
sg26
I62
sg27
I2
sg28
I2
sg29
I2
sg30
F1.4923956394195557
sg31
F83.67512679100037
sg32
(lp1275
I9
aI7
aI3
aI2
aI10
aI0
asg607
F19.30009436607361
sg34
g1166
sg36
(lp1276
(lp1277
I4
aI2
aI2
aa(lp1278
I-10
aI-6
aI2
aasg40
(lp1279
(lp1280
I-8
aI-10
aI-6
aI-6
aI01
aI01
aI00
aa(lp1281
I2
aI5
aI5
aI9
aI01
aI01
aI00
aasa(dp1282
g24
I2
sg25
I8
sg26
I57
sg27
I2
sg28
I2
sg29
I2
sg30
F1.3877217769622803
sg31
F3.626720905303955
sg32
(lp1283
I9
aI10
aI0
aI8
aI7
aI0
asg607
F18.5731258392334
sg34
g1166
sg36
(lp1284
(lp1285
I8
aI-2
aI2
aa(lp1286
I-8
aI5
aI2
aasg40
(lp1287
(lp1288
I-1
aI-2
aI-3
aI-2
aI01
aI00
aI00
aa(lp1289
I9
aI5
aI6
aI6
aI00
aI00
aI01
aasa(dp1290
g24
I2
sg25
I7
sg26
I56
sg27
I2
sg28
I2
sg29
I1
sg30
F1.3653151988983154
sg31
F1.4539494514465332
sg32
(lp1291
I6
aI9
aI10
aI10
aI10
aI1
asg607
F18.95906352996826
sg34
g1166
sg36
(lp1292
(lp1293
I-8
aI10
aI2
aa(lp1294
I-1
aI8
aI2
aasg40
(lp1295
(lp1296
I-8
aI1
aI2
aI3
aI01
aI00
aI00
aa(lp1297
I7
aI-2
aI3
aI4
aI01
aI00
aI01
aasa(dp1298
g24
I2
sg25
I7
sg26
I45
sg27
I2
sg28
I1
sg29
I2
sg30
F1.0862433910369873
sg31
F0.9016819000244141
sg32
(lp1299
I10
aI7
aI4
aI0
aI10
aI3
asg607
F15.688506364822388
sg34
g1166
sg36
(lp1300
(lp1301
I-3
aI10
aI2
aa(lp1302
I7
aI5
aI2
aasg40
(lp1303
(lp1304
I-2
aI0
aI-6
aI10
aI00
aI01
aI00
aa(lp1305
I-10
aI2
aI-5
aI6
aI00
aI01
aI00
aasa(dp1306
g24
I2
sg25
I8
sg26
I59
sg27
I2
sg28
I2
sg29
I2
sg30
F1.4163970947265625
sg31
F101.79749917984009
sg32
(lp1307
I5
aI10
aI10
aI5
aI10
aI9
asg607
F21.695165634155273
sg34
g1166
sg36
(lp1308
(lp1309
I-9
aI3
aI2
aa(lp1310
I-5
aI3
aI2
aasg40
(lp1311
(lp1312
I-5
aI-10
aI-8
aI7
aI00
aI00
aI01
aa(lp1313
I-5
aI-10
aI1
aI1
aI01
aI01
aI00
aasa(dp1314
g24
I2
sg25
I8
sg26
I76
sg27
I2
sg28
I2
sg29
I2
sg30
F1.8430814743041992
sg31
F38.56520390510559
sg32
(lp1315
I4
aI1
aI2
aI1
aI7
aI7
asg607
F27.62742829322815
sg34
g1166
sg36
(lp1316
(lp1317
I10
aI10
aI2
aa(lp1318
I1
aI5
aI2
aasg40
(lp1319
(lp1320
I-5
aI-3
aI-6
aI6
aI01
aI01
aI00
aa(lp1321
I0
aI-5
aI-8
aI8
aI01
aI01
aI01
aasa(dp1322
g24
I2
sg25
I8
sg26
I59
sg27
I2
sg28
I2
sg29
I2
sg30
F1.427495002746582
sg31
F266.9685025215149
sg32
(lp1323
I4
aI0
aI8
aI6
aI4
aI0
asg607
F23.101434469223022
sg34
g1166
sg36
(lp1324
(lp1325
I3
aI-4
aI2
aa(lp1326
I8
aI3
aI2
aasg40
(lp1327
(lp1328
I2
aI7
aI-7
aI8
aI00
aI00
aI00
aa(lp1329
I-2
aI5
aI10
aI9
aI01
aI00
aI01
aasa(dp1330
g24
I2
sg25
I8
sg26
I60
sg27
I2
sg28
I2
sg29
I2
sg30
F1.4581241607666016
sg31
F32.784287214279175
sg32
(lp1331
I8
aI8
aI5
aI7
aI8
aI10
asg607
F23.420122623443604
sg34
g1166
sg36
(lp1332
(lp1333
I4
aI2
aI2
aa(lp1334
I-4
aI0
aI2
aasg40
(lp1335
(lp1336
I3
aI-6
aI10
aI-6
aI01
aI01
aI00
aa(lp1337
I8
aI-9
aI-4
aI3
aI00
aI00
aI01
aasa(dp1338
g24
I2
sg25
I6
sg26
I44
sg27
I1
sg28
I1
sg29
I2
sg30
F1.0658204555511475
sg31
F0.9460458755493164
sg32
(lp1339
I10
aI9
aI0
aI1
aI0
aI10
asg607
F17.52902364730835
sg34
g1166
sg36
(lp1340
(lp1341
I6
aI2
aI2
aa(lp1342
I9
aI3
aI2
aasg40
(lp1343
(lp1344
I-8
aI-10
aI9
aI-8
aI00
aI00
aI00
aasa(dp1345
g24
I2
sg25
I8
sg26
I70
sg27
I2
sg28
I2
sg29
I2
sg30
F1.6970739364624023
sg31
F47.685043811798096
sg32
(lp1346
I1
aI5
aI4
aI0
aI9
aI10
asg607
F29.557846069335938
sg34
g1166
sg36
(lp1347
(lp1348
I-7
aI-10
aI2
aa(lp1349
I1
aI-5
aI2
aasg40
(lp1350
(lp1351
I10
aI-3
aI-3
aI2
aI01
aI01
aI01
aa(lp1352
I10
aI-3
aI-10
aI-3
aI00
aI00
aI00
aasa(dp1353
g24
I2
sg25
I8
sg26
I52
sg27
I2
sg28
I2
sg29
I2
sg30
F1.2578656673431396
sg31
F2.49501633644104
sg32
(lp1354
I8
aI0
aI4
aI9
aI0
aI4
asg607
F21.99000120162964
sg34
g1166
sg36
(lp1355
(lp1356
I3
aI3
aI2
aa(lp1357
I-7
aI4
aI2
aasg40
(lp1358
(lp1359
I10
aI1
aI8
aI10
aI01
aI01
aI01
aa(lp1360
I8
aI10
aI-7
aI10
aI01
aI00
aI00
aasa(dp1361
g24
I2
sg25
I7
sg26
I55
sg27
I2
sg28
I2
sg29
I1
sg30
F1.3401381969451904
sg31
F5.663947105407715
sg32
(lp1362
I10
aI2
aI8
aI8
aI5
aI4
asg607
F23.69955563545227
sg34
g1166
sg36
(lp1363
(lp1364
I6
aI9
aI2
aa(lp1365
I1
aI-8
aI2
aasg40
(lp1366
(lp1367
I-3
aI-10
aI-10
aI2
aI00
aI00
aI01
aa(lp1368
I-9
aI-1
aI4
aI9
aI01
aI00
aI00
aasa(dp1369
g24
I2
sg25
I8
sg26
I66
sg27
I2
sg28
I2
sg29
I2
sg30
F1.5929298400878906
sg31
F17.410486221313477
sg32
(lp1370
I0
aI9
aI4
aI4
aI8
aI10
asg607
F30.051190614700317
sg34
g1166
sg36
(lp1371
(lp1372
I5
aI5
aI2
aa(lp1373
I7
aI0
aI2
aasg40
(lp1374
(lp1375
I9
aI-9
aI-1
aI-9
aI01
aI00
aI00
aa(lp1376
I4
aI1
aI-2
aI4
aI00
aI00
aI00
aasa(dp1377
g24
I2
sg25
I8
sg26
I64
sg27
I2
sg28
I2
sg29
I2
sg30
F1.5593669414520264
sg31
F235.064772605896
sg32
(lp1378
I1
aI2
aI10
aI3
aI0
aI7
asg607
F28.37069797515869
sg34
g1166
sg36
(lp1379
(lp1380
I9
aI-3
aI2
aa(lp1381
I-8
aI-10
aI2
aasg40
(lp1382
(lp1383
I-10
aI3
aI-3
aI8
aI00
aI01
aI01
aa(lp1384
I6
aI-4
aI-6
aI5
aI00
aI01
aI00
aasa(dp1385
g24
I2
sg25
I8
sg26
I58
sg27
I2
sg28
I2
sg29
I2
sg30
F1.4141945838928223
sg31
F131.21948528289795
sg32
(lp1386
I6
aI1
aI0
aI7
aI9
aI9
asg607
F26.125999927520752
sg34
g1166
sg36
(lp1387
(lp1388
I1
aI5
aI2
aa(lp1389
I1
aI-10
aI2
aasg40
(lp1390
(lp1391
I7
aI-6
aI4
aI10
aI00
aI00
aI01
aa(lp1392
I4
aI-8
aI4
aI7
aI01
aI00
aI00
aasa(dp1393
g24
I2
sg25
I8
sg26
I56
sg27
I2
sg28
I2
sg29
I2
sg30
F1.3606805801391602
sg31
F63.6325888633728
sg32
(lp1394
I9
aI3
aI8
aI6
aI10
aI8
asg607
F25.566020965576172
sg34
g1166
sg36
(lp1395
(lp1396
I-2
aI-9
aI2
aa(lp1397
I1
aI-6
aI2
aasg40
(lp1398
(lp1399
I6
aI-5
aI3
aI-5
aI00
aI01
aI00
aa(lp1400
I7
aI-10
aI10
aI1
aI00
aI00
aI01
aasa(dp1401
g24
I2
sg25
I8
sg26
I68
sg27
I2
sg28
I2
sg29
I2
sg30
F1.6532409191131592
sg31
F73.2273302078247
sg32
(lp1402
I6
aI2
aI10
aI8
aI8
aI0
asg607
F31.583996772766113
sg34
g1166
sg36
(lp1403
(lp1404
I-1
aI-1
aI2
aa(lp1405
I2
aI-3
aI2
aasg40
(lp1406
(lp1407
I8
aI2
aI7
aI9
aI00
aI01
aI01
aa(lp1408
I8
aI-4
aI-9
aI8
aI01
aI01
aI01
aasa(dp1409
g24
I2
sg25
I8
sg26
I53
sg27
I2
sg28
I2
sg29
I2
sg30
F1.2904198169708252
sg31
F8.470842361450195
sg32
(lp1410
I5
aI9
aI8
aI7
aI9
aI10
asg607
F25.19823408126831
sg34
g1166
sg36
(lp1411
(lp1412
I7
aI0
aI2
aa(lp1413
I0
aI-10
aI2
aasg40
(lp1414
(lp1415
I-7
aI-4
aI10
aI-4
aI01
aI00
aI00
aa(lp1416
I-5
aI-1
aI3
aI1
aI01
aI00
aI00
aasa(dp1417
g24
I2
sg25
I7
sg26
I66
sg27
I2
sg28
I1
sg29
I2
sg30
F1.6421732902526855
sg31
F1.160945177078247
sg32
(lp1418
I1
aI7
aI10
aI10
aI9
aI9
asg607
F32.52457237243652
sg34
g1166
sg36
(lp1419
(lp1420
I3
aI-5
aI2
aa(lp1421
I-7
aI8
aI2
aasg40
(lp1422
(lp1423
I6
aI-9
aI6
aI-9
aI00
aI01
aI00
aa(lp1424
I6
aI-10
aI-1
aI-3
aI00
aI01
aI01
aasa(dp1425
g24
I2
sg25
I8
sg26
I81
sg27
I2
sg28
I2
sg29
I2
sg30
F1.9543538093566895
sg31
F24.714388847351074
sg32
(lp1426
I6
aI4
aI0
aI6
aI2
aI9
asg607
F41.30079436302185
sg34
g1166
sg36
(lp1427
(lp1428
I9
aI10
aI2
aa(lp1429
I2
aI-4
aI2
aasg40
(lp1430
(lp1431
I6
aI3
aI9
aI7
aI01
aI00
aI01
aa(lp1432
I-1
aI-9
aI2
aI-8
aI01
aI01
aI00
aasa(dp1433
g24
I2
sg25
I8
sg26
I63
sg27
I2
sg28
I2
sg29
I2
sg30
F1.519885778427124
sg31
F1365.4777221679688
sg32
(lp1434
I2
aI1
aI10
aI5
aI9
aI8
asg607
F31.590577363967896
sg34
g1166
sg36
(lp1435
(lp1436
I1
aI4
aI2
aa(lp1437
I-5
aI-3
aI2
aasg40
(lp1438
(lp1439
I-5
aI0
aI-10
aI2
aI00
aI00
aI01
aa(lp1440
I6
aI-10
aI5
aI-3
aI01
aI01
aI01
aasa(dp1441
g24
I2
sg25
I7
sg26
I57
sg27
I2
sg28
I2
sg29
I1
sg30
F1.3845763206481934
sg31
F5.463991165161133
sg32
(lp1442
I10
aI10
aI2
aI2
aI3
aI4
asg607
F29.131276845932007
sg34
g1166
sg36
(lp1443
(lp1444
I4
aI0
aI2
aa(lp1445
I3
aI-4
aI2
aasg40
(lp1446
(lp1447
I-1
aI8
aI-3
aI10
aI01
aI00
aI00
aa(lp1448
I-2
aI-6
aI10
aI10
aI00
aI00
aI01
aasa(dp1449
g24
I2
sg25
I8
sg26
I58
sg27
I2
sg28
I2
sg29
I2
sg30
F1.4096102714538574
sg31
F896.7479317188263
sg32
(lp1450
I5
aI5
aI10
aI9
aI6
aI0
asg607
F31.30360245704651
sg34
g1166
sg36
(lp1451
(lp1452
I0
aI-3
aI2
aa(lp1453
I2
aI8
aI2
aasg40
(lp1454
(lp1455
I8
aI6
aI0
aI7
aI01
aI01
aI01
aa(lp1456
I6
aI3
aI5
aI9
aI01
aI00
aI01
aasa(dp1457
g24
I2
sg25
I8
sg26
I46
sg27
I2
sg28
I2
sg29
I2
sg30
F1.1154096126556396
sg31
F59.90913105010986
sg32
(lp1458
I1
aI2
aI7
aI10
aI5
aI10
asg607
F24.979687452316284
sg34
g1166
sg36
(lp1459
(lp1460
I-10
aI-1
aI2
aa(lp1461
I-7
aI7
aI2
aasg40
(lp1462
(lp1463
I2
aI-8
aI-2
aI4
aI00
aI00
aI00
aa(lp1464
I-4
aI1
aI0
aI5
aI00
aI00
aI00
aasa(dp1465
g24
I2
sg25
I8
sg26
I43
sg27
I2
sg28
I2
sg29
I2
sg30
F1.044196367263794
sg31
F11.261831521987915
sg32
(lp1466
I1
aI3
aI5
aI8
aI10
aI4
asg607
F22.688302516937256
sg34
g1166
sg36
(lp1467
(lp1468
I-10
aI10
aI2
aa(lp1469
I10
aI4
aI2
aasg40
(lp1470
(lp1471
I-1
aI-9
aI-3
aI6
aI01
aI00
aI00
aa(lp1472
I2
aI-3
aI-8
aI10
aI01
aI00
aI00
aasa(dp1473
g24
I2
sg25
I8
sg26
I62
sg27
I2
sg28
I2
sg29
I2
sg30
F1.5351083278656006
sg31
F22.439974546432495
sg32
(lp1474
I0
aI0
aI10
aI9
aI8
aI0
asg607
F33.32626485824585
sg34
g1166
sg36
(lp1475
(lp1476
I4
aI-6
aI2
aa(lp1477
I1
aI-9
aI2
aasg40
(lp1478
(lp1479
I-2
aI-10
aI-5
aI-10
aI01
aI01
aI00
aa(lp1480
I6
aI8
aI1
aI9
aI00
aI00
aI01
aasa(dp1481
g24
I2
sg25
I8
sg26
I63
sg27
I2
sg28
I2
sg29
I2
sg30
F1.5341618061065674
sg31
F40.023656606674194
sg32
(lp1482
I9
aI4
aI8
aI7
aI3
aI10
asg607
F34.534963607788086
sg34
g1166
sg36
(lp1483
(lp1484
I9
aI-3
aI2
aa(lp1485
I10
aI-2
aI2
aasg40
(lp1486
(lp1487
I9
aI0
aI-9
aI1
aI00
aI01
aI00
aa(lp1488
I6
aI6
aI9
aI9
aI01
aI00
aI00
aasa(dp1489
g24
I2
sg25
I8
sg26
I66
sg27
I2
sg28
I2
sg29
I2
sg30
F1.6075692176818848
sg31
F103.83859896659851
sg32
(lp1490
I1
aI4
aI0
aI5
aI10
aI10
asg607
F36.8743622303009
sg34
g1166
sg36
(lp1491
(lp1492
I9
aI4
aI2
aa(lp1493
I-5
aI-3
aI2
aasg40
(lp1494
(lp1495
I2
aI-3
aI-3
aI5
aI00
aI00
aI00
aa(lp1496
I10
aI-9
aI5
aI1
aI00
aI01
aI01
aasa(dp1497
g24
I2
sg25
I8
sg26
I57
sg27
I2
sg28
I2
sg29
I2
sg30
F1.3875322341918945
sg31
F7.390666484832764
sg32
(lp1498
I9
aI1
aI10
aI10
aI1
aI3
asg607
F33.33427953720093
sg34
g1166
sg36
(lp1499
(lp1500
I3
aI-10
aI2
aa(lp1501
I5
aI3
aI2
aasg40
(lp1502
(lp1503
I-2
aI7
aI-1
aI10
aI01
aI00
aI00
aa(lp1504
I6
aI-8
aI-2
aI-8
aI01
aI00
aI00
aasa(dp1505
g24
I2
sg25
I8
sg26
I67
sg27
I2
sg28
I2
sg29
I2
sg30
F1.6288845539093018
sg31
F62.347816467285156
sg32
(lp1506
I9
aI4
aI5
aI7
aI2
aI10
asg607
F38.157294034957886
sg34
g1166
sg36
(lp1507
(lp1508
I1
aI-6
aI2
aa(lp1509
I7
aI-4
aI2
aasg40
(lp1510
(lp1511
I-3
aI-5
aI10
aI1
aI00
aI00
aI00
aa(lp1512
I1
aI-9
aI9
aI2
aI01
aI00
aI01
aasa(dp1513
g24
I1
sg25
I7
sg26
I57
sg27
I2
sg28
I2
sg29
I2
sg30
F1.404581069946289
sg31
F10.645832300186157
sg32
(lp1514
I0
aI2
aI0
aI7
aI2
aI9
asg607
F32.758212089538574
sg34
g1166
sg36
(lp1515
(lp1516
I5
aI-10
aI2
aasg40
(lp1517
(lp1518
I3
aI-7
aI5
aI0
aI01
aI00
aI00
aa(lp1519
I10
aI-5
aI-3
aI-1
aI01
aI00
aI01
aasa(dp1520
g24
I2
sg25
I8
sg26
I62
sg27
I2
sg28
I2
sg29
I2
sg30
F1.5074536800384521
sg31
F5.143332481384277
sg32
(lp1521
I1
aI4
aI7
aI5
aI7
aI10
asg607
F36.23890495300293
sg34
g1166
sg36
(lp1522
(lp1523
I-2
aI-1
aI2
aa(lp1524
I-9
aI-2
aI2
aasg40
(lp1525
(lp1526
I-3
aI-4
aI-4
aI3
aI00
aI01
aI01
aa(lp1527
I5
aI-3
aI-5
aI3
aI01
aI01
aI00
aasa(dp1528
g24
I1
sg25
I7
sg26
I95
sg27
I2
sg28
I2
sg29
I2
sg30
F2.3281426429748535
sg31
F1.0719728469848633
sg32
(lp1529
I2
aI7
aI0
aI5
aI1
aI1
asg607
F56.60366368293762
sg34
g1166
sg36
(lp1530
(lp1531
I7
aI8
aI2
aasg40
(lp1532
(lp1533
I7
aI6
aI9
aI10
aI01
aI01
aI00
aa(lp1534
I9
aI-9
aI-10
aI1
aI01
aI01
aI00
aasa(dp1535
g24
I2
sg25
I8
sg26
I58
sg27
I2
sg28
I2
sg29
I2
sg30
F1.4120581150054932
sg31
F25.870248079299927
sg32
(lp1536
I9
aI6
aI6
aI5
aI8
aI0
asg607
F34.64143085479736
sg34
g1166
sg36
(lp1537
(lp1538
I6
aI-9
aI2
aa(lp1539
I-4
aI10
aI2
aasg40
(lp1540
(lp1541
I3
aI-7
aI-10
aI10
aI01
aI01
aI00
aa(lp1542
I-7
aI-8
aI-3
aI5
aI00
aI00
aI00
aasa(dp1543
g24
I2
sg25
I8
sg26
I71
sg27
I2
sg28
I2
sg29
I2
sg30
F1.7430269718170166
sg31
F130.5133068561554
sg32
(lp1544
I0
aI4
aI4
aI0
aI7
aI5
asg607
F43.46392798423767
sg34
g1166
sg36
(lp1545
(lp1546
I10
aI0
aI2
aa(lp1547
I-6
aI1
aI2
aasg40
(lp1548
(lp1549
I-5
aI-7
aI8
aI-2
aI01
aI00
aI01
aa(lp1550
I3
aI-10
aI-7
aI-6
aI01
aI01
aI01
aasa(dp1551
g24
I2
sg25
I8
sg26
I69
sg27
I2
sg28
I2
sg29
I2
sg30
F1.6510004997253418
sg31
F41.58483600616455
sg32
(lp1552
I8
aI2
aI9
aI5
aI3
aI1
asg607
F42.51872682571411
sg34
g1166
sg36
(lp1553
(lp1554
I-7
aI8
aI2
aa(lp1555
I3
aI-9
aI2
aasg40
(lp1556
(lp1557
I7
aI-7
aI5
aI1
aI00
aI00
aI00
aa(lp1558
I10
aI2
aI-8
aI10
aI01
aI00
aI00
aasa(dp1559
g24
I2
sg25
I8
sg26
I58
sg27
I2
sg28
I2
sg29
I2
sg30
F1.4127719402313232
sg31
F53.78202724456787
sg32
(lp1560
I8
aI8
aI10
aI9
aI6
aI8
asg607
F36.26797413825989
sg34
g1166
sg36
(lp1561
(lp1562
I1
aI10
aI2
aa(lp1563
I-6
aI10
aI2
aasg40
(lp1564
(lp1565
I-9
aI-1
aI2
aI6
aI00
aI01
aI01
aa(lp1566
I-3
aI0
aI6
aI4
aI01
aI00
aI01
aasa(dp1567
g24
I2
sg25
I8
sg26
I55
sg27
I2
sg28
I2
sg29
I2
sg30
F1.342423439025879
sg31
F85.80253195762634
sg32
(lp1568
I5
aI2
aI9
aI1
aI7
aI1
asg607
F34.625555753707886
sg34
g1166
sg36
(lp1569
(lp1570
I-3
aI9
aI2
aa(lp1571
I10
aI-10
aI2
aasg40
(lp1572
(lp1573
I3
aI-2
aI5
aI3
aI00
aI01
aI01
aa(lp1574
I8
aI-8
aI-10
aI10
aI01
aI00
aI00
aasa(dp1575
g24
I2
sg25
I8
sg26
I75
sg27
I2
sg28
I2
sg29
I2
sg30
F1.805894136428833
sg31
F18.693321466445923
sg32
(lp1576
I2
aI2
aI0
aI8
aI5
aI9
asg607
F47.04763078689575
sg34
g1166
sg36
(lp1577
(lp1578
I-2
aI1
aI2
aa(lp1579
I9
aI-6
aI2
aasg40
(lp1580
(lp1581
I0
aI-6
aI0
aI5
aI00
aI00
aI00
aa(lp1582
I-1
aI-6
aI-5
aI10
aI00
aI00
aI00
aasa(dp1583
g24
I2
sg25
I8
sg26
I70
sg27
I2
sg28
I2
sg29
I2
sg30
F1.7053451538085938
sg31
F152.61955046653748
sg32
(lp1584
I0
aI5
aI0
aI8
aI2
aI2
asg607
F45.94355368614197
sg34
g1166
sg36
(lp1585
(lp1586
I6
aI8
aI2
aa(lp1587
I-1
aI4
aI2
aasg40
(lp1588
(lp1589
I1
aI8
aI7
aI10
aI00
aI00
aI01
aa(lp1590
I1
aI-2
aI-4
aI7
aI01
aI00
aI01
aasa(dp1591
g24
I2
sg25
I8
sg26
I66
sg27
I2
sg28
I2
sg29
I2
sg30
F1.6149687767028809
sg31
F23.640563011169434
sg32
(lp1592
I10
aI0
aI0
aI9
aI6
aI5
asg607
F42.5658118724823
sg34
g1166
sg36
(lp1593
(lp1594
I-6
aI-10
aI2
aa(lp1595
I-1
aI-2
aI2
aasg40
(lp1596
(lp1597
I-2
aI-5
aI-2
aI-5
aI01
aI01
aI00
aa(lp1598
I-5
aI-7
aI-8
aI-7
aI01
aI00
aI00
aasa(dp1599
g24
I2
sg25
I8
sg26
I43
sg27
I2
sg28
I2
sg29
I2
sg30
F1.0429203510284424
sg31
F1.5528523921966553
sg32
(lp1600
I6
aI6
aI10
aI1
aI2
aI0
asg607
F27.886404752731323
sg34
g1166
sg36
(lp1601
(lp1602
I7
aI0
aI2
aa(lp1603
I-4
aI8
aI2
aasg40
(lp1604
(lp1605
I-7
aI-1
aI-9
aI3
aI00
aI01
aI00
aa(lp1606
I-3
aI7
aI-9
aI8
aI00
aI01
aI00
aasa(dp1607
g24
I2
sg25
I7
sg26
I47
sg27
I2
sg28
I1
sg29
I2
sg30
F1.135936975479126
sg31
F0.8421709537506104
sg32
(lp1608
I0
aI1
aI10
aI0
aI8
aI10
asg607
F31.160233974456787
sg34
g1166
sg36
(lp1609
(lp1610
I-6
aI8
aI2
aa(lp1611
I3
aI8
aI2
aasg40
(lp1612
(lp1613
I-7
aI6
aI-5
aI10
aI00
aI00
aI00
aa(lp1614
I-6
aI6
aI-4
aI7
aI00
aI01
aI00
aasa(dp1615
g24
I2
sg25
I8
sg26
I70
sg27
I2
sg28
I2
sg29
I2
sg30
F1.6864969730377197
sg31
F83.8048849105835
sg32
(lp1616
I1
aI5
aI9
aI1
aI5
aI5
asg607
F47.700456619262695
sg34
g1166
sg36
(lp1617
(lp1618
I-8
aI8
aI2
aa(lp1619
I-10
aI-10
aI2
aasg40
(lp1620
(lp1621
I-9
aI-6
aI-9
aI3
aI01
aI01
aI00
aa(lp1622
I-9
aI-7
aI-5
aI1
aI00
aI00
aI01
aasa(dp1623
g24
I2
sg25
I8
sg26
I70
sg27
I2
sg28
I2
sg29
I2
sg30
F1.7115190029144287
sg31
F419.38186860084534
sg32
(lp1624
I1
aI9
aI7
aI3
aI7
aI5
asg607
F47.54816484451294
sg34
g1166
sg36
(lp1625
(lp1626
I7
aI-8
aI2
aa(lp1627
I0
aI-8
aI2
aasg40
(lp1628
(lp1629
I5
aI-5
aI1
aI1
aI01
aI00
aI01
aa(lp1630
I10
aI-10
aI2
aI6
aI00
aI01
aI00
aasa(dp1631
g24
I2
sg25
I8
sg26
I66
sg27
I2
sg28
I2
sg29
I2
sg30
F1.6152207851409912
sg31
F251.2515308856964
sg32
(lp1632
I5
aI3
aI6
aI6
aI7
aI7
asg607
F45.02504229545593
sg34
g1166
sg36
(lp1633
(lp1634
I-1
aI1
aI2
aa(lp1635
I-3
aI-9
aI2
aasg40
(lp1636
(lp1637
I-7
aI-9
aI-8
aI3
aI00
aI00
aI00
aa(lp1638
I-10
aI-10
aI-1
aI5
aI01
aI00
aI01
aasa(dp1639
g24
I2
sg25
I8
sg26
I60
sg27
I2
sg28
I2
sg29
I2
sg30
F1.4561412334442139
sg31
F163.8731234073639
sg32
(lp1640
I0
aI5
aI4
aI5
aI7
aI2
asg607
F41.73569416999817
sg34
g1166
sg36
(lp1641
(lp1642
I-7
aI-10
aI2
aa(lp1643
I-5
aI-1
aI2
aasg40
(lp1644
(lp1645
I7
aI-10
aI-3
aI2
aI01
aI01
aI01
aa(lp1646
I2
aI-4
aI10
aI3
aI00
aI00
aI01
aasa(dp1647
g24
I2
sg25
I8
sg26
I54
sg27
I2
sg28
I2
sg29
I2
sg30
F1.3001012802124023
sg31
F131.3490116596222
sg32
(lp1648
I9
aI10
aI6
aI4
aI4
aI0
asg607
F37.74007201194763
sg34
g1166
sg36
(lp1649
(lp1650
I-10
aI0
aI2
aa(lp1651
I1
aI8
aI2
aasg40
(lp1652
(lp1653
I-2
aI-1
aI-5
aI1
aI00
aI01
aI01
aa(lp1654
I6
aI5
aI-2
aI7
aI00
aI01
aI00
aasa(dp1655
g24
I2
sg25
I8
sg26
I73
sg27
I2
sg28
I2
sg29
I2
sg30
F1.7766528129577637
sg31
F182.07637405395508
sg32
(lp1656
I1
aI1
aI6
aI3
aI1
aI10
asg607
F51.14363074302673
sg34
g1166
sg36
(lp1657
(lp1658
I-10
aI-8
aI2
aa(lp1659
I-4
aI-5
aI2
aasg40
(lp1660
(lp1661
I-1
aI0
aI2
aI10
aI01
aI00
aI00
aa(lp1662
I6
aI-3
aI-9
aI1
aI01
aI00
aI01
aasa(dp1663
g24
I2
sg25
I8
sg26
I63
sg27
I2
sg28
I2
sg29
I2
sg30
F1.5280990600585938
sg31
F200.90735864639282
sg32
(lp1664
I10
aI7
aI0
aI8
aI3
aI1
asg607
F43.010111570358276
sg34
g1166
sg36
(lp1665
(lp1666
I1
aI-2
aI2
aa(lp1667
I-5
aI-5
aI2
aasg40
(lp1668
(lp1669
I4
aI2
aI-5
aI3
aI01
aI00
aI01
aa(lp1670
I1
aI-8
aI-6
aI10
aI00
aI00
aI00
aasa(dp1671
g24
I2
sg25
I7
sg26
I39
sg27
I2
sg28
I2
sg29
I1
sg30
F0.942765474319458
sg31
F0.3558828830718994
sg32
(lp1672
I9
aI0
aI6
aI7
aI7
aI2
asg607
F28.584439516067505
sg34
g1166
sg36
(lp1673
(lp1674
I8
aI10
aI2
aa(lp1675
I-5
aI-1
aI2
aasg40
(lp1676
(lp1677
I8
aI7
aI0
aI7
aI00
aI00
aI00
aa(lp1678
I10
aI7
aI9
aI7
aI00
aI00
aI00
aasa(dp1679
g24
I2
sg25
I8
sg26
I63
sg27
I2
sg28
I2
sg29
I2
sg30
F1.5249123573303223
sg31
F245.83078050613403
sg32
(lp1680
I10
aI5
aI3
aI6
aI5
aI3
asg607
F44.14936542510986
sg34
g1166
sg36
(lp1681
(lp1682
I-4
aI-6
aI2
aa(lp1683
I7
aI10
aI2
aasg40
(lp1684
(lp1685
I6
aI-4
aI-6
aI3
aI00
aI01
aI01
aa(lp1686
I-10
aI-5
aI-9
aI-1
aI01
aI00
aI01
aasa(dp1687
g24
I2
sg25
I7
sg26
I42
sg27
I2
sg28
I1
sg29
I2
sg30
F1.0210785865783691
sg31
F0.5616023540496826
sg32
(lp1688
I0
aI9
aI4
aI0
aI1
aI10
asg607
F29.81778049468994
sg34
g1166
sg36
(lp1689
(lp1690
I2
aI9
aI2
aa(lp1691
I7
aI3
aI2
aasg40
(lp1692
(lp1693
I-5
aI1
aI-10
aI1
aI00
aI00
aI01
aa(lp1694
I10
aI4
aI10
aI4
aI01
aI00
aI00
aasa(dp1695
g24
I2
sg25
I7
sg26
I53
sg27
I2
sg28
I2
sg29
I1
sg30
F1.2677357196807861
sg31
F12.371604442596436
sg32
(lp1696
I6
aI1
aI10
aI1
aI10
aI3
asg607
F37.64582419395447
sg34
g1166
sg36
(lp1697
(lp1698
I1
aI1
aI2
aa(lp1699
I0
aI0
aI2
aasg40
(lp1700
(lp1701
I-1
aI-4
aI-8
aI10
aI00
aI00
aI01
aa(lp1702
I3
aI2
aI-7
aI7
aI00
aI00
aI01
aasa(dp1703
g24
I2
sg25
I6
sg26
I48
sg27
I1
sg28
I1
sg29
I2
sg30
F1.152144432067871
sg31
F3.158156633377075
sg32
(lp1704
I2
aI4
aI2
aI10
aI6
aI10
asg607
F34.19347405433655
sg34
g1166
sg36
(lp1705
(lp1706
I5
aI-8
aI2
aa(lp1707
I2
aI-2
aI2
aasg40
(lp1708
(lp1709
I-3
aI-6
aI3
aI7
aI00
aI00
aI01
aasa(dp1710
g24
I2
sg25
I7
sg26
I49
sg27
I2
sg28
I2
sg29
I1
sg30
F1.1642253398895264
sg31
F1.1725318431854248
sg32
(lp1711
I5
aI4
aI9
aI5
aI10
aI3
asg607
F35.180421590805054
sg34
g1166
sg36
(lp1712
(lp1713
I-7
aI10
aI2
aa(lp1714
I1
aI-2
aI2
aasg40
(lp1715
(lp1716
I10
aI1
aI-6
aI1
aI01
aI00
aI00
aa(lp1717
I10
aI2
aI10
aI7
aI01
aI00
aI00
aasaa(lp1718
(dp1719
g3
I2
sg4
I8
sg5
I68
sg6
(lp1720
(lp1721
I4
aI-4
aI6
aI2
aI01
aI00
aI00
aa(lp1722
I-10
aI-6
aI-4
aI9
aI01
aI01
aI00
aasg10
I2
sg11
I2
sg12
I2
sg13
F1.656564474105835
sg14
F14.134260177612305
sg15
(lp1723
I0
aI9
aI9
aI5
aI1
aI5
asg600
F11.426361083984375
sg17
(lp1724
(lp1725
I8
aI-7
aI2
aa(lp1726
I-7
aI-6
aI2
aasg21
S'a_cegis'
p1727
sa(dp1728
g24
I2
sg25
I7
sg26
I69
sg27
I2
sg28
I2
sg29
I1
sg30
F1.7907099723815918
sg31
F2.1051762104034424
sg32
(lp1729
I0
aI10
aI10
aI10
aI1
aI6
asg607
F11.77325439453125
sg34
S'a_cegis'
p1730
sg36
(lp1731
(lp1732
I2
aI-6
aI2
aa(lp1733
I-7
aI-9
aI2
aasg40
(lp1734
(lp1735
I-1
aI8
aI10
aI9
aI00
aI00
aI00
aa(lp1736
I-6
aI5
aI4
aI8
aI01
aI00
aI01
aasa(dp1737
g24
I2
sg25
I8
sg26
I83
sg27
I2
sg28
I2
sg29
I2
sg30
F2.1050989627838135
sg31
F46.53425407409668
sg32
(lp1738
I4
aI6
aI10
aI4
aI10
aI8
asg607
F15.283899784088135
sg34
g1730
sg36
(lp1739
(lp1740
I-5
aI-10
aI2
aa(lp1741
I3
aI-3
aI2
aasg40
(lp1742
(lp1743
I-6
aI-7
aI-7
aI5
aI01
aI00
aI01
aa(lp1744
I-2
aI6
aI-9
aI10
aI01
aI01
aI00
aasa(dp1745
g24
I2
sg25
I8
sg26
I58
sg27
I2
sg28
I2
sg29
I2
sg30
F2.1186234951019287
sg31
F2.8775081634521484
sg32
(lp1746
I10
aI6
aI10
aI0
aI0
aI3
asg607
F12.999687194824219
sg34
g1730
sg36
(lp1747
(lp1748
I-10
aI-3
aI2
aa(lp1749
I6
aI5
aI2
aasg40
(lp1750
(lp1751
I10
aI10
aI6
aI10
aI01
aI01
aI00
aa(lp1752
I3
aI6
aI-6
aI6
aI00
aI00
aI00
aasa(dp1753
g24
I2
sg25
I7
sg26
I55
sg27
I1
sg28
I2
sg29
I2
sg30
F1.378305196762085
sg31
F3.1409759521484375
sg32
(lp1754
I8
aI9
aI10
aI3
aI6
aI10
asg607
F11.27331805229187
sg34
g1730
sg36
(lp1755
(lp1756
I7
aI-10
aI2
aa(lp1757
I-4
aI-10
aI2
aasg40
(lp1758
(lp1759
I8
aI5
aI1
aI6
aI00
aI00
aI00
aasa(dp1760
g24
I2
sg25
I8
sg26
I76
sg27
I2
sg28
I2
sg29
I2
sg30
F1.9458179473876953
sg31
F22.162099361419678
sg32
(lp1761
I9
aI2
aI10
aI8
aI0
aI2
asg607
F15.621882438659668
sg34
g1730
sg36
(lp1762
(lp1763
I1
aI10
aI2
aa(lp1764
I-5
aI1
aI2
aasg40
(lp1765
(lp1766
I4
aI4
aI3
aI7
aI00
aI01
aI00
aa(lp1767
I7
aI0
aI-1
aI4
aI01
aI00
aI01
aasa(dp1768
g24
I2
sg25
I8
sg26
I89
sg27
I2
sg28
I2
sg29
I2
sg30
F2.276632308959961
sg31
F7.940836668014526
sg32
(lp1769
I1
aI7
aI10
aI5
aI9
aI10
asg607
F19.765509843826294
sg34
g1730
sg36
(lp1770
(lp1771
I-6
aI-4
aI2
aa(lp1772
I7
aI-8
aI2
aasg40
(lp1773
(lp1774
I0
aI-6
aI1
aI1
aI00
aI01
aI00
aa(lp1775
I-6
aI4
aI-5
aI8
aI01
aI01
aI00
aasa(dp1776
g24
I2
sg25
I8
sg26
I85
sg27
I2
sg28
I2
sg29
I2
sg30
F2.043846368789673
sg31
F90.07506728172302
sg32
(lp1777
I2
aI7
aI1
aI3
aI8
aI0
asg607
F20.39785099029541
sg34
g1730
sg36
(lp1778
(lp1779
I6
aI9
aI2
aa(lp1780
I4
aI-6
aI2
aasg40
(lp1781
(lp1782
I-6
aI-1
aI5
aI5
aI00
aI01
aI00
aa(lp1783
I-2
aI3
aI3
aI8
aI00
aI00
aI00
aasa(dp1784
g24
I2
sg25
I8
sg26
I89
sg27
I2
sg28
I2
sg29
I2
sg30
F2.1673593521118164
sg31
F21.693467378616333
sg32
(lp1785
I2
aI4
aI8
aI4
aI5
aI0
asg607
F21.812381267547607
sg34
g1730
sg36
(lp1786
(lp1787
I1
aI1
aI2
aa(lp1788
I-9
aI1
aI2
aasg40
(lp1789
(lp1790
I6
aI-3
aI-9
aI-3
aI01
aI00
aI00
aa(lp1791
I-3
aI-1
aI10
aI4
aI01
aI00
aI01
aasa(dp1792
g24
I2
sg25
I7
sg26
I80
sg27
I2
sg28
I1
sg29
I2
sg30
F1.965831995010376
sg31
F32.9066276550293
sg32
(lp1793
I9
aI6
aI6
aI1
aI8
aI0
asg607
F21.519785404205322
sg34
g1730
sg36
(lp1794
(lp1795
I3
aI10
aI2
aa(lp1796
I4
aI-7
aI2
aasg40
(lp1797
(lp1798
I1
aI-2
aI-10
aI9
aI00
aI01
aI00
aa(lp1799
I-9
aI-7
aI-2
aI2
aI00
aI00
aI01
aasa(dp1800
g24
I2
sg25
I7
sg26
I61
sg27
I2
sg28
I2
sg29
I1
sg30
F1.4846086502075195
sg31
F5.261070489883423
sg32
(lp1801
I5
aI9
aI8
aI7
aI0
aI0
asg607
F17.107914924621582
sg34
g1730
sg36
(lp1802
(lp1803
I0
aI9
aI2
aa(lp1804
I-8
aI0
aI2
aasg40
(lp1805
(lp1806
I6
aI-5
aI2
aI10
aI01
aI00
aI01
aa(lp1807
I-5
aI-2
aI9
aI3
aI00
aI00
aI00
aasa(dp1808
g24
I2
sg25
I8
sg26
I95
sg27
I2
sg28
I2
sg29
I2
sg30
F2.3034892082214355
sg31
F3362.7370450496674
sg32
(lp1809
I9
aI2
aI0
aI5
aI7
aI5
asg607
F26.96285367012024
sg34
g1730
sg36
(lp1810
(lp1811
I6
aI-2
aI2
aa(lp1812
I5
aI4
aI2
aasg40
(lp1813
(lp1814
I2
aI-6
aI-1
aI3
aI00
aI01
aI01
aa(lp1815
I7
aI-10
aI-1
aI1
aI01
aI00
aI01
aasa(dp1816
g24
I2
sg25
I5
sg26
I25
sg27
I0
sg28
I1
sg29
I2
sg30
F0.6032123565673828
sg31
F0.3566744327545166
sg32
(lp1817
I5
aI6
aI0
aI0
aI6
aI7
asg607
F7.139984846115112
sg34
g1730
sg36
(lp1818
(lp1819
I10
aI-4
aI2
aa(lp1820
I4
aI-5
aI2
aasg40
(lp1821
sa(dp1822
g24
I2
sg25
I6
sg26
I58
sg27
I1
sg28
I1
sg29
I2
sg30
F1.404860019683838
sg31
F1.035202980041504
sg32
(lp1823
I4
aI8
aI6
aI0
aI10
aI9
asg607
F17.193538188934326
sg34
g1730
sg36
(lp1824
(lp1825
I9
aI4
aI2
aa(lp1826
I-4
aI-6
aI2
aasg40
(lp1827
(lp1828
I7
aI-7
aI-10
aI6
aI00
aI00
aI00
aasa(dp1829
g24
I2
sg25
I8
sg26
I68
sg27
I2
sg28
I2
sg29
I2
sg30
F1.658538818359375
sg31
F31.075255632400513
sg32
(lp1830
I5
aI0
aI10
aI1
aI2
aI0
asg607
F20.65338683128357
sg34
g1730
sg36
(lp1831
(lp1832
I-5
aI-2
aI2
aa(lp1833
I-10
aI3
aI2
aasg40
(lp1834
(lp1835
I6
aI-1
aI2
aI0
aI00
aI01
aI00
aa(lp1836
I5
aI-3
aI6
aI0
aI01
aI01
aI01
aasa(dp1837
g24
I2
sg25
I8
sg26
I78
sg27
I2
sg28
I2
sg29
I2
sg30
F1.8900392055511475
sg31
F56.354910373687744
sg32
(lp1838
I9
aI7
aI3
aI2
aI10
aI0
asg607
F25.533933401107788
sg34
g1730
sg36
(lp1839
(lp1840
I4
aI2
aI2
aa(lp1841
I-10
aI-6
aI2
aasg40
(lp1842
(lp1843
I2
aI1
aI5
aI9
aI01
aI01
aI00
aa(lp1844
I-8
aI-10
aI-6
aI-6
aI01
aI01
aI00
aasa(dp1845
g24
I2
sg25
I8
sg26
I71
sg27
I2
sg28
I2
sg29
I2
sg30
F1.7353975772857666
sg31
F5.016068458557129
sg32
(lp1846
I9
aI10
aI2
aI8
aI7
aI0
asg607
F23.949278593063354
sg34
g1730
sg36
(lp1847
(lp1848
I-10
aI5
aI2
aa(lp1849
I6
aI-2
aI2
aasg40
(lp1850
(lp1851
I7
aI5
aI7
aI6
aI00
aI00
aI00
aa(lp1852
I6
aI6
aI4
aI6
aI00
aI00
aI01
aasa(dp1853
g24
I2
sg25
I7
sg26
I66
sg27
I2
sg28
I2
sg29
I1
sg30
F1.606863021850586
sg31
F18.041712045669556
sg32
(lp1854
I6
aI4
aI7
aI10
aI3
aI9
asg607
F22.597655773162842
sg34
g1730
sg36
(lp1855
(lp1856
I-5
aI2
aI2
aa(lp1857
I2
aI0
aI2
aasg40
(lp1858
(lp1859
I10
aI-10
aI6
aI-4
aI01
aI00
aI01
aa(lp1860
I-5
aI-7
aI5
aI-5
aI01
aI00
aI00
aasa(dp1861
g24
I2
sg25
I8
sg26
I56
sg27
I2
sg28
I2
sg29
I2
sg30
F1.4046447277069092
sg31
F1.5135059356689453
sg32
(lp1862
I0
aI7
aI1
aI0
aI10
aI10
asg607
F20.725790977478027
sg34
g1730
sg36
(lp1863
(lp1864
I0
aI3
aI2
aa(lp1865
I10
aI-2
aI2
aasg40
(lp1866
(lp1867
I-7
aI-4
aI-2
aI-1
aI00
aI01
aI00
aa(lp1868
I1
aI-7
aI-3
aI3
aI01
aI01
aI00
aasa(dp1869
g24
I2
sg25
I8
sg26
I74
sg27
I2
sg28
I2
sg29
I2
sg30
F1.7822601795196533
sg31
F42.48682165145874
sg32
(lp1870
I10
aI5
aI1
aI10
aI5
aI6
asg607
F26.741045236587524
sg34
g1730
sg36
(lp1871
(lp1872
I0
aI6
aI2
aa(lp1873
I4
aI6
aI2
aasg40
(lp1874
(lp1875
I4
aI-7
aI1
aI10
aI00
aI00
aI01
aa(lp1876
I10
aI4
aI-2
aI5
aI01
aI01
aI00
aasa(dp1877
g24
I2
sg25
I8
sg26
I83
sg27
I2
sg28
I2
sg29
I2
sg30
F2.0055766105651855
sg31
F213.5471968650818
sg32
(lp1878
I4
aI1
aI2
aI1
aI7
aI10
asg607
F31.645005226135254
sg34
g1730
sg36
(lp1879
(lp1880
I1
aI2
aI2
aa(lp1881
I10
aI7
aI2
aasg40
(lp1882
(lp1883
I2
aI-7
aI-6
aI3
aI01
aI01
aI00
aa(lp1884
I0
aI-8
aI-8
aI5
aI01
aI01
aI01
aasa(dp1885
g24
I2
sg25
I8
sg26
I73
sg27
I2
sg28
I2
sg29
I2
sg30
F1.7681427001953125
sg31
F77.41122555732727
sg32
(lp1886
I0
aI4
aI8
aI4
aI6
aI0
asg607
F27.826902627944946
sg34
g1730
sg36
(lp1887
(lp1888
I3
aI-4
aI2
aa(lp1889
I8
aI3
aI2
aasg40
(lp1890
(lp1891
I-2
aI5
aI10
aI9
aI00
aI01
aI01
aa(lp1892
I2
aI7
aI-7
aI8
aI00
aI00
aI00
aasa(dp1893
g24
I2
sg25
I8
sg26
I75
sg27
I2
sg28
I2
sg29
I2
sg30
F1.7953100204467773
sg31
F58.76025414466858
sg32
(lp1894
I8
aI8
aI5
aI8
aI7
aI3
asg607
F30.247376203536987
sg34
g1730
sg36
(lp1895
(lp1896
I4
aI9
aI2
aa(lp1897
I-4
aI7
aI2
aasg40
(lp1898
(lp1899
I8
aI-2
aI-4
aI10
aI00
aI00
aI01
aa(lp1900
I3
aI1
aI10
aI1
aI01
aI01
aI00
aasa(dp1901
g24
I2
sg25
I6
sg26
I87
sg27
I1
sg28
I2
sg29
I1
sg30
F2.118145227432251
sg31
F3.3594775199890137
sg32
(lp1902
I9
aI6
aI2
aI0
aI0
aI3
asg607
F35.76402807235718
sg34
g1730
sg36
(lp1903
(lp1904
I7
aI10
aI2
aa(lp1905
I4
aI9
aI2
aasg40
(lp1906
(lp1907
I-10
aI-4
aI7
aI-1
aI00
aI00
aI00
aasa(dp1908
g24
I2
sg25
I8
sg26
I82
sg27
I2
sg28
I2
sg29
I2
sg30
F1.999312162399292
sg31
F19.028294801712036
sg32
(lp1909
I1
aI5
aI5
aI0
aI9
aI10
asg607
F33.85428738594055
sg34
g1730
sg36
(lp1910
(lp1911
I0
aI-5
aI2
aa(lp1912
I-8
aI-10
aI2
aasg40
(lp1913
(lp1914
I9
aI-2
aI-4
aI2
aI01
aI01
aI01
aa(lp1915
I9
aI-3
aI-10
aI-3
aI00
aI00
aI00
aasa(dp1916
g24
I2
sg25
I6
sg26
I70
sg27
I1
sg28
I2
sg29
I1
sg30
F1.7063522338867188
sg31
F1.3593392372131348
sg32
(lp1917
I8
aI10
aI4
aI9
aI3
aI10
asg607
F29.733766794204712
sg34
g1730
sg36
(lp1918
(lp1919
I-7
aI-2
aI2
aa(lp1920
I3
aI-3
aI2
aasg40
(lp1921
(lp1922
I10
aI-5
aI-7
aI4
aI01
aI00
aI01
aasa(dp1923
g24
I2
sg25
I7
sg26
I59
sg27
I2
sg28
I1
sg29
I2
sg30
F1.4490411281585693
sg31
F8.752241849899292
sg32
(lp1924
I4
aI10
aI4
aI8
aI8
aI3
asg607
F26.5243136882782
sg34
g1730
sg36
(lp1925
(lp1926
I5
aI-7
aI2
aa(lp1927
I10
aI10
aI2
aasg40
(lp1928
(lp1929
I1
aI-9
aI-6
aI3
aI00
aI00
aI01
aa(lp1930
I-5
aI0
aI9
aI10
aI00
aI01
aI00
aasa(dp1931
g24
I2
sg25
I8
sg26
I79
sg27
I2
sg28
I2
sg29
I2
sg30
F1.929161787033081
sg31
F68.45154690742493
sg32
(lp1932
I0
aI9
aI3
aI4
aI8
aI5
asg607
F35.00530982017517
sg34
g1730
sg36
(lp1933
(lp1934
I6
aI10
aI2
aa(lp1935
I8
aI5
aI2
aasg40
(lp1936
(lp1937
I10
aI6
aI-1
aI9
aI00
aI00
aI00
aa(lp1938
I10
aI-4
aI0
aI-4
aI01
aI00
aI00
aasa(dp1939
g24
I2
sg25
I8
sg26
I79
sg27
I2
sg28
I2
sg29
I2
sg30
F1.922483205795288
sg31
F121.38564038276672
sg32
(lp1940
I1
aI2
aI10
aI3
aI0
aI5
asg607
F35.413652420043945
sg34
g1730
sg36
(lp1941
(lp1942
I-8
aI-8
aI2
aa(lp1943
I9
aI-1
aI2
aasg40
(lp1944
(lp1945
I4
aI-2
aI-6
aI7
aI00
aI01
aI00
aa(lp1946
I-10
aI5
aI-3
aI10
aI00
aI01
aI01
aasa(dp1947
g24
I2
sg25
I8
sg26
I57
sg27
I2
sg28
I2
sg29
I2
sg30
F1.3831446170806885
sg31
F44.75950479507446
sg32
(lp1948
I1
aI6
aI10
aI9
aI7
aI9
asg607
F25.85101056098938
sg34
g1730
sg36
(lp1949
(lp1950
I-9
aI5
aI2
aa(lp1951
I-9
aI-10
aI2
aasg40
(lp1952
(lp1953
I-3
aI-6
aI-6
aI10
aI00
aI00
aI01
aa(lp1954
I-6
aI-8
aI-5
aI7
aI00
aI01
aI00
aasa(dp1955
g24
I2
sg25
I8
sg26
I69
sg27
I2
sg28
I2
sg29
I2
sg30
F1.6873879432678223
sg31
F49.768534898757935
sg32
(lp1956
I9
aI3
aI8
aI6
aI10
aI8
asg607
F32.82651948928833
sg34
g1730
sg36
(lp1957
(lp1958
I-2
aI-9
aI2
aa(lp1959
I1
aI-6
aI2
aasg40
(lp1960
(lp1961
I6
aI-5
aI-1
aI-4
aI00
aI01
aI00
aa(lp1962
I7
aI-10
aI10
aI1
aI00
aI00
aI01
aasa(dp1963
g24
I2
sg25
I8
sg26
I92
sg27
I2
sg28
I2
sg29
I2
sg30
F2.241826057434082
sg31
F71.39110064506531
sg32
(lp1964
I2
aI6
aI8
aI8
aI8
aI6
asg607
F43.82913160324097
sg34
g1730
sg36
(lp1965
(lp1966
I4
aI-9
aI2
aa(lp1967
I1
aI-7
aI2
aasg40
(lp1968
(lp1969
I10
aI-10
aI-7
aI2
aI01
aI01
aI01
aa(lp1970
I10
aI-4
aI9
aI3
aI01
aI00
aI01
aasa(dp1971
g24
I2
sg25
I8
sg26
I74
sg27
I2
sg28
I2
sg29
I2
sg30
F1.8063538074493408
sg31
F15.134703874588013
sg32
(lp1972
I9
aI7
aI9
aI9
aI10
aI10
asg607
F35.54083204269409
sg34
g1730
sg36
(lp1973
(lp1974
I-1
aI-10
aI2
aa(lp1975
I4
aI-3
aI2
aasg40
(lp1976
(lp1977
I-8
aI-4
aI0
aI-2
aI00
aI01
aI00
aa(lp1978
I7
aI-7
aI-10
aI-7
aI00
aI01
aI00
aasa(dp1979
g24
I2
sg25
I6
sg26
I64
sg27
I1
sg28
I1
sg29
I2
sg30
F1.5481505393981934
sg31
F1.3399443626403809
sg32
(lp1980
I4
aI7
aI6
aI7
aI9
aI7
asg607
F32.582998752593994
sg34
g1730
sg36
(lp1981
(lp1982
I-3
aI10
aI2
aa(lp1983
I7
aI-3
aI2
aasg40
(lp1984
(lp1985
I10
aI-8
aI3
aI-1
aI00
aI01
aI01
aasa(dp1986
g24
I2
sg25
I8
sg26
I87
sg27
I2
sg28
I2
sg29
I2
sg30
F2.103503465652466
sg31
F52.27114152908325
sg32
(lp1987
I4
aI6
aI0
aI2
aI6
aI10
asg607
F43.38503289222717
sg34
g1730
sg36
(lp1988
(lp1989
I9
aI9
aI2
aa(lp1990
I2
aI-5
aI2
aasg40
(lp1991
(lp1992
I6
aI2
aI9
aI7
aI00
aI01
aI01
aa(lp1993
I-1
aI-10
aI2
aI-9
aI01
aI01
aI00
aasa(dp1994
g24
I2
sg25
I8
sg26
I96
sg27
I2
sg28
I2
sg29
I2
sg30
F2.3406975269317627
sg31
F178.6836748123169
sg32
(lp1995
I1
aI2
aI6
aI9
aI5
aI2
asg607
F48.15933275222778
sg34
g1730
sg36
(lp1996
(lp1997
I5
aI10
aI2
aa(lp1998
I-1
aI3
aI2
aasg40
(lp1999
(lp2000
I10
aI-4
aI9
aI3
aI01
aI01
aI01
aa(lp2001
I-1
aI1
aI-6
aI8
aI00
aI00
aI01
aasa(dp2002
g24
I2
sg25
I7
sg26
I90
sg27
I2
sg28
I2
sg29
I1
sg30
F2.1915032863616943
sg31
F12.414984464645386
sg32
(lp2003
I10
aI1
aI9
aI2
aI8
aI4
asg607
F47.07499599456787
sg34
g1730
sg36
(lp2004
(lp2005
I-3
aI0
aI2
aa(lp2006
I-4
aI-4
aI2
aasg40
(lp2007
(lp2008
I-9
aI-6
aI3
aI10
aI00
aI00
aI01
aa(lp2009
I-7
aI8
aI-10
aI10
aI01
aI00
aI00
aasa(dp2010
g24
I2
sg25
I8
sg26
I87
sg27
I2
sg28
I2
sg29
I2
sg30
F2.120253801345825
sg31
F20.697646141052246
sg32
(lp2011
I5
aI5
aI8
aI6
aI9
aI7
asg607
F44.85528516769409
sg34
g1730
sg36
(lp2012
(lp2013
I4
aI1
aI2
aa(lp2014
I2
aI-10
aI2
aasg40
(lp2015
(lp2016
I8
aI-4
aI7
aI2
aI00
aI01
aI01
aa(lp2017
I10
aI-1
aI6
aI0
aI01
aI01
aI01
aasa(dp2018
g24
I2
sg25
I8
sg26
I62
sg27
I2
sg28
I2
sg29
I2
sg30
F1.4937443733215332
sg31
F8.021743059158325
sg32
(lp2019
I2
aI1
aI7
aI5
aI10
aI10
asg607
F32.420279026031494
sg34
g1730
sg36
(lp2020
(lp2021
I-10
aI-1
aI2
aa(lp2022
I-7
aI7
aI2
aasg40
(lp2023
(lp2024
I2
aI-8
aI-2
aI4
aI00
aI00
aI00
aa(lp2025
I-4
aI1
aI0
aI5
aI00
aI00
aI00
aasa(dp2026
g24
I2
sg25
I8
sg26
I66
sg27
I2
sg28
I2
sg29
I2
sg30
F1.6089630126953125
sg31
F127.69339656829834
sg32
(lp2027
I1
aI3
aI5
aI8
aI10
aI5
asg607
F34.987982749938965
sg34
g1730
sg36
(lp2028
(lp2029
I-10
aI9
aI2
aa(lp2030
I10
aI3
aI2
aasg40
(lp2031
(lp2032
I2
aI-4
aI-8
aI10
aI01
aI00
aI00
aa(lp2033
I-1
aI-10
aI-3
aI5
aI01
aI00
aI00
aasa(dp2034
g24
I2
sg25
I8
sg26
I88
sg27
I2
sg28
I2
sg29
I2
sg30
F2.147881507873535
sg31
F24.404335737228394
sg32
(lp2035
I0
aI0
aI6
aI8
aI9
aI0
asg607
F47.462974071502686
sg34
g1730
sg36
(lp2036
(lp2037
I5
aI-9
aI2
aa(lp2038
I8
aI-6
aI2
aasg40
(lp2039
(lp2040
I10
aI8
aI5
aI9
aI00
aI00
aI01
aa(lp2041
I-1
aI-10
aI2
aI-10
aI01
aI01
aI00
aasa(dp2042
g24
I2
sg25
I8
sg26
I76
sg27
I2
sg28
I2
sg29
I2
sg30
F1.8606164455413818
sg31
F12.9321768283844
sg32
(lp2043
I4
aI9
aI9
aI3
aI7
aI10
asg607
F43.281121253967285
sg34
g1730
sg36
(lp2044
(lp2045
I8
aI-3
aI2
aa(lp2046
I9
aI-2
aI2
aasg40
(lp2047
(lp2048
I5
aI6
aI8
aI9
aI00
aI01
aI00
aa(lp2049
I9
aI0
aI-10
aI1
aI01
aI00
aI00
aasa(dp2050
g24
I2
sg25
I8
sg26
I72
sg27
I2
sg28
I2
sg29
I2
sg30
F1.7585365772247314
sg31
F70.71673703193665
sg32
(lp2051
I1
aI4
aI0
aI5
aI10
aI10
asg607
F41.48436737060547
sg34
g1730
sg36
(lp2052
(lp2053
I9
aI4
aI2
aa(lp2054
I-5
aI-3
aI2
aasg40
(lp2055
(lp2056
I2
aI-3
aI-3
aI5
aI00
aI00
aI00
aa(lp2057
I10
aI-9
aI5
aI1
aI00
aI01
aI01
aasa(dp2058
g24
I2
sg25
I8
sg26
I82
sg27
I2
sg28
I2
sg29
I2
sg30
F1.997481107711792
sg31
F4.008846282958984
sg32
(lp2059
I9
aI1
aI6
aI10
aI1
aI3
asg607
F46.340754985809326
sg34
g1730
sg36
(lp2060
(lp2061
I9
aI3
aI2
aa(lp2062
I7
aI-10
aI2
aasg40
(lp2063
(lp2064
I10
aI-8
aI0
aI-7
aI01
aI00
aI00
aa(lp2065
I2
aI7
aI3
aI10
aI01
aI00
aI00
aasa(dp2066
g24
I2
sg25
I8
sg26
I67
sg27
I2
sg28
I2
sg29
I2
sg30
F1.629850149154663
sg31
F21.008207082748413
sg32
(lp2067
I4
aI9
aI10
aI2
aI7
aI2
asg607
F38.44721174240112
sg34
g1730
sg36
(lp2068
(lp2069
I2
aI4
aI2
aa(lp2070
I-4
aI2
aI2
aasg40
(lp2071
(lp2072
I-4
aI-1
aI4
aI10
aI00
aI01
aI01
aa(lp2073
I-8
aI3
aI5
aI9
aI00
aI00
aI00
aasa(dp2074
g24
I2
sg25
I7
sg26
I59
sg27
I2
sg28
I1
sg29
I2
sg30
F1.4459068775177002
sg31
F14.065763711929321
sg32
(lp2075
I10
aI2
aI6
aI10
aI2
aI6
asg607
F34.31061577796936
sg34
g1730
sg36
(lp2076
(lp2077
I-1
aI-7
aI2
aa(lp2078
I-1
aI0
aI2
aasg40
(lp2079
(lp2080
I-3
aI0
aI-1
aI10
aI00
aI00
aI00
aa(lp2081
I4
aI5
aI-10
aI9
aI00
aI00
aI01
aasa(dp2082
g24
I2
sg25
I8
sg26
I79
sg27
I2
sg28
I2
sg29
I2
sg30
F1.9084994792938232
sg31
F9.916466236114502
sg32
(lp2083
I1
aI4
aI4
aI5
aI7
aI10
asg607
F46.30618357658386
sg34
g1730
sg36
(lp2084
(lp2085
I-6
aI-2
aI2
aa(lp2086
I1
aI-1
aI2
aasg40
(lp2087
(lp2088
I8
aI-3
aI-2
aI3
aI01
aI01
aI00
aa(lp2089
I0
aI-1
aI-1
aI3
aI01
aI01
aI01
aasa(dp2090
g24
I2
sg25
I5
sg26
I42
sg27
I0
sg28
I1
sg29
I2
sg30
F1.0193662643432617
sg31
F1.0145952701568604
sg32
(lp2091
I4
aI7
aI10
aI6
aI1
aI9
asg607
F25.050262928009033
sg34
g1730
sg36
(lp2092
(lp2093
I-3
aI0
aI2
aa(lp2094
I-1
aI5
aI2
aasg40
(lp2095
sa(dp2096
g24
I2
sg25
I8
sg26
I82
sg27
I2
sg28
I2
sg29
I2
sg30
F2.0011394023895264
sg31
F55.56843400001526
sg32
(lp2097
I9
aI6
aI2
aI5
aI8
aI1
asg607
F49.265639781951904
sg34
g1730
sg36
(lp2098
(lp2099
I10
aI-10
aI2
aa(lp2100
I0
aI9
aI2
aasg40
(lp2101
(lp2102
I7
aI-8
aI-6
aI9
aI01
aI01
aI00
aa(lp2103
I-3
aI-9
aI1
aI4
aI00
aI00
aI00
aasa(dp2104
g24
I2
sg25
I7
sg26
I78
sg27
I2
sg28
I2
sg29
I1
sg30
F1.9032847881317139
sg31
F42.174341917037964
sg32
(lp2105
I4
aI0
aI4
aI7
aI8
aI5
asg607
F47.83195209503174
sg34
g1730
sg36
(lp2106
(lp2107
I-6
aI1
aI2
aa(lp2108
I10
aI0
aI2
aasg40
(lp2109
(lp2110
I-7
aI-6
aI8
aI-2
aI00
aI00
aI01
aa(lp2111
I3
aI-10
aI-5
aI-7
aI01
aI00
aI01
aasa(dp2112
g24
I2
sg25
I8
sg26
I85
sg27
I2
sg28
I2
sg29
I2
sg30
F2.060925245285034
sg31
F81.85300993919373
sg32
(lp2113
I8
aI2
aI10
aI5
aI3
aI0
asg607
F52.67842364311218
sg34
g1730
sg36
(lp2114
(lp2115
I-8
aI9
aI2
aa(lp2116
I2
aI-8
aI2
aasg40
(lp2117
(lp2118
I6
aI-6
aI4
aI2
aI00
aI00
aI00
aa(lp2119
I9
aI3
aI-9
aI6
aI01
aI00
aI00
aasa(dp2120
g24
I2
sg25
I8
sg26
I69
sg27
I2
sg28
I2
sg29
I2
sg30
F1.6779987812042236
sg31
F107.32964944839478
sg32
(lp2121
I8
aI8
aI6
aI9
aI6
aI10
asg607
F44.736085414886475
sg34
g1730
sg36
(lp2122
(lp2123
I-2
aI8
aI2
aa(lp2124
I5
aI8
aI2
aasg40
(lp2125
(lp2126
I-5
aI-3
aI6
aI4
aI00
aI01
aI01
aa(lp2127
I1
aI-2
aI10
aI2
aI01
aI00
aI01
aasa(dp2128
g24
I2
sg25
I8
sg26
I98
sg27
I2
sg28
I2
sg29
I2
sg30
F2.3876938819885254
sg31
F48.88630223274231
sg32
(lp2129
I5
aI2
aI9
aI1
aI7
aI1
asg607
F62.770880699157715
sg34
g1730
sg36
(lp2130
(lp2131
I10
aI-10
aI2
aa(lp2132
I-3
aI9
aI2
aasg40
(lp2133
(lp2134
I7
aI-8
aI-10
aI5
aI01
aI00
aI00
aa(lp2135
I3
aI-2
aI5
aI3
aI00
aI01
aI01
aasa(dp2136
g24
I2
sg25
I7
sg26
I81
sg27
I1
sg28
I2
sg29
I2
sg30
F1.976733922958374
sg31
F29.606605291366577
sg32
(lp2137
I2
aI2
aI7
aI5
aI8
aI10
asg607
F52.58471465110779
sg34
g1730
sg36
(lp2138
(lp2139
I2
aI-7
aI2
aa(lp2140
I-10
aI0
aI2
aasg40
(lp2141
(lp2142
I-10
aI-7
aI-7
aI4
aI00
aI00
aI01
aasa(dp2143
g24
I2
sg25
I8
sg26
I84
sg27
I2
sg28
I2
sg29
I2
sg30
F2.043853998184204
sg31
F19.114885807037354
sg32
(lp2144
I5
aI0
aI0
aI2
aI8
aI0
asg607
F53.373380184173584
sg34
g1730
sg36
(lp2145
(lp2146
I6
aI10
aI2
aa(lp2147
I-2
aI6
aI2
aasg40
(lp2148
(lp2149
I1
aI-4
aI4
aI9
aI00
aI01
aI00
aa(lp2150
I0
aI9
aI-4
aI9
aI00
aI01
aI00
aasa(dp2151
g24
I2
sg25
I8
sg26
I94
sg27
I2
sg28
I2
sg29
I2
sg30
F2.298140048980713
sg31
F38.53607940673828
sg32
(lp2152
I10
aI0
aI0
aI9
aI6
aI3
asg607
F60.7365517616272
sg34
g1730
sg36
(lp2153
(lp2154
I-6
aI-8
aI2
aa(lp2155
I-1
aI0
aI2
aasg40
(lp2156
(lp2157
I1
aI-8
aI-2
aI0
aI01
aI01
aI00
aa(lp2158
I-5
aI-5
aI-8
aI-5
aI01
aI00
aI00
aasa(dp2159
g24
I2
sg25
I8
sg26
I66
sg27
I2
sg28
I2
sg29
I2
sg30
F1.6010761260986328
sg31
F8.061707973480225
sg32
(lp2160
I6
aI6
aI7
aI2
aI1
aI0
asg607
F43.083125829696655
sg34
g1730
sg36
(lp2161
(lp2162
I10
aI0
aI2
aa(lp2163
I-1
aI8
aI2
aasg40
(lp2164
(lp2165
I-4
aI-1
aI-6
aI3
aI01
aI00
aI00
aa(lp2166
I-4
aI7
aI0
aI7
aI01
aI00
aI01
aasa(dp2167
g24
I2
sg25
I8
sg26
I56
sg27
I2
sg28
I2
sg29
I2
sg30
F1.3606212139129639
sg31
F0.9498951435089111
sg32
(lp2168
I0
aI1
aI4
aI0
aI8
aI8
asg607
F36.852349519729614
sg34
g1730
sg36
(lp2169
(lp2170
I9
aI10
aI2
aa(lp2171
I0
aI10
aI2
aasg40
(lp2172
(lp2173
I7
aI3
aI9
aI4
aI00
aI01
aI00
aa(lp2174
I-10
aI-1
aI-10
aI2
aI01
aI01
aI00
aasa(dp2175
g24
I2
sg25
I8
sg26
I75
sg27
I2
sg28
I2
sg29
I2
sg30
F1.7971148490905762
sg31
F101.4210352897644
sg32
(lp2176
I1
aI5
aI0
aI1
aI5
aI3
asg607
F49.60863995552063
sg34
g1730
sg36
(lp2177
(lp2178
I1
aI10
aI2
aa(lp2179
I-1
aI-8
aI2
aasg40
(lp2180
(lp2181
I4
aI-5
aI0
aI5
aI01
aI01
aI00
aa(lp2182
I2
aI-5
aI4
aI3
aI00
aI00
aI01
aasa(dp2183
g24
I2
sg25
I8
sg26
I87
sg27
I2
sg28
I2
sg29
I2
sg30
F2.123629331588745
sg31
F154.31998419761658
sg32
(lp2184
I9
aI1
aI10
aI7
aI3
aI1
asg607
F57.106037616729736
sg34
g1730
sg36
(lp2185
(lp2186
I4
aI-4
aI2
aa(lp2187
I-3
aI-4
aI2
aasg40
(lp2188
(lp2189
I7
aI-6
aI-1
aI10
aI01
aI00
aI00
aa(lp2190
I2
aI-8
aI-2
aI5
aI00
aI01
aI01
aasa(dp2191
g24
I2
sg25
I8
sg26
I81
sg27
I2
sg28
I2
sg29
I2
sg30
F1.9681382179260254
sg31
F201.52721691131592
sg32
(lp2192
I5
aI3
aI0
aI6
aI7
aI7
asg607
F53.59127187728882
sg34
g1730
sg36
(lp2193
(lp2194
I5
aI1
aI2
aa(lp2195
I3
aI-9
aI2
aasg40
(lp2196
(lp2197
I-4
aI-10
aI5
aI5
aI01
aI00
aI01
aa(lp2198
I-1
aI-9
aI-2
aI3
aI00
aI00
aI00
aasa(dp2199
g24
I2
sg25
I8
sg26
I83
sg27
I2
sg28
I2
sg29
I2
sg30
F2.018003225326538
sg31
F15.278796911239624
sg32
(lp2200
I0
aI5
aI4
aI5
aI7
aI0
asg607
F55.90235185623169
sg34
g1730
sg36
(lp2201
(lp2202
I-5
aI1
aI2
aa(lp2203
I-7
aI-8
aI2
aasg40
(lp2204
(lp2205
I2
aI-2
aI10
aI5
aI00
aI00
aI01
aa(lp2206
I7
aI-8
aI-3
aI4
aI01
aI01
aI01
aasa(dp2207
g24
I2
sg25
I8
sg26
I83
sg27
I2
sg28
I2
sg29
I2
sg30
F2.0038318634033203
sg31
F27.626041173934937
sg32
(lp2208
I9
aI10
aI3
aI4
aI4
aI0
asg607
F55.54737591743469
sg34
g1730
sg36
(lp2209
(lp2210
I4
aI8
aI2
aa(lp2211
I-7
aI0
aI2
aasg40
(lp2212
(lp2213
I10
aI5
aI1
aI7
aI00
aI01
aI00
aa(lp2214
I1
aI-1
aI-2
aI1
aI00
aI01
aI01
aasa(dp2215
g24
I2
sg25
I8
sg26
I94
sg27
I2
sg28
I2
sg29
I2
sg30
F2.279442548751831
sg31
F26.62244963645935
sg32
(lp2216
I1
aI1
aI2
aI1
aI3
aI10
asg607
F63.87885236740112
sg34
g1730
sg36
(lp2217
(lp2218
I0
aI-5
aI2
aa(lp2219
I-6
aI-8
aI2
aasg40
(lp2220
(lp2221
I3
aI0
aI6
aI10
aI00
aI01
aI00
aa(lp2222
I10
aI-3
aI-4
aI1
aI00
aI01
aI01
aasa(dp2223
g24
I2
sg25
I8
sg26
I92
sg27
I2
sg28
I2
sg29
I2
sg30
F2.2345364093780518
sg31
F39.692302227020264
sg32
(lp2224
I7
aI10
aI0
aI3
aI8
aI1
asg607
F63.24343204498291
sg34
g1730
sg36
(lp2225
(lp2226
I-5
aI-5
aI2
aa(lp2227
I1
aI-2
aI2
aasg40
(lp2228
(lp2229
I4
aI2
aI-6
aI3
aI00
aI01
aI01
aa(lp2230
I1
aI-8
aI-6
aI10
aI00
aI00
aI00
aasa(dp2231
g24
I2
sg25
I8
sg26
I61
sg27
I2
sg28
I2
sg29
I2
sg30
F1.4781379699707031
sg31
F1.992511510848999
sg32
(lp2232
I0
aI9
aI6
aI0
aI7
aI10
asg607
F41.99501347541809
sg34
g1730
sg36
(lp2233
(lp2234
I8
aI2
aI2
aa(lp2235
I-5
aI-9
aI2
aasg40
(lp2236
(lp2237
I-3
aI-10
aI-7
aI-7
aI00
aI00
aI00
aa(lp2238
I0
aI-1
aI10
aI-1
aI00
aI00
aI00
aasa(dp2239
g24
I2
sg25
I8
sg26
I90
sg27
I2
sg28
I2
sg29
I2
sg30
F2.1884701251983643
sg31
F112.67377996444702
sg32
(lp2240
I5
aI10
aI3
aI5
aI6
aI7
asg607
F64.4065637588501
sg34
g1730
sg36
(lp2241
(lp2242
I7
aI6
aI2
aa(lp2243
I-4
aI-10
aI2
aasg40
(lp2244
(lp2245
I6
aI-8
aI-6
aI-1
aI01
aI00
aI01
aa(lp2246
I-10
aI-9
aI-9
aI-5
aI00
aI01
aI01
aasa(dp2247
g24
I2
sg25
I7
sg26
I59
sg27
I1
sg28
I2
sg29
I2
sg30
F1.4447920322418213
sg31
F1.1698918342590332
sg32
(lp2248
I0
aI9
aI4
aI0
aI1
aI10
asg607
F43.67187309265137
sg34
g1730
sg36
(lp2249
(lp2250
I2
aI9
aI2
aa(lp2251
I7
aI3
aI2
aasg40
(lp2252
(lp2253
I-2
aI1
aI-10
aI1
aI01
aI01
aI00
aasa(dp2254
g24
I2
sg25
I7
sg26
I81
sg27
I2
sg28
I2
sg29
I1
sg30
F1.9467687606811523
sg31
F113.94991612434387
sg32
(lp2255
I6
aI3
aI10
aI1
aI3
aI3
asg607
F58.88272762298584
sg34
g1730
sg36
(lp2256
(lp2257
I0
aI0
aI2
aa(lp2258
I1
aI1
aI2
aasg40
(lp2259
(lp2260
I-1
aI-4
aI-8
aI10
aI00
aI00
aI01
aa(lp2261
I3
aI4
aI-7
aI7
aI00
aI00
aI01
aasa(dp2262
g24
I2
sg25
I6
sg26
I68
sg27
I1
sg28
I2
sg29
I1
sg30
F1.637115478515625
sg31
F5.94036602973938
sg32
(lp2263
I4
aI3
aI10
aI6
aI0
aI7
asg607
F48.23894381523132
sg34
g1730
sg36
(lp2264
(lp2265
I-3
aI-5
aI2
aa(lp2266
I-6
aI1
aI2
aasg40
(lp2267
(lp2268
I-10
aI-3
aI-5
aI10
aI00
aI00
aI01
aasa(dp2269
g24
I2
sg25
I6
sg26
I81
sg27
I1
sg28
I2
sg29
I1
sg30
F1.9292526245117188
sg31
F1.7524137496948242
sg32
(lp2270
I5
aI5
aI10
aI5
aI5
aI10
asg607
F58.06665325164795
sg34
g1730
sg36
(lp2271
(lp2272
I-8
aI3
aI2
aa(lp2273
I0
aI-9
aI2
aasg40
(lp2274
(lp2275
I-7
aI-6
aI9
aI0
aI01
aI00
aI01
aasaa(lp2276
(dp2277
g3
I2
sg4
I8
sg5
I211
sg6
(lp2278
(lp2279
I4
aI-7
aI6
aI-1
aI01
aI00
aI00
aa(lp2280
I-10
aI-9
aI-4
aI6
aI01
aI01
aI00
aasg10
I2
sg11
I2
sg12
I2
sg13
F4.586242437362671
sg14
F16.018874168395996
sg15
(lp2281
I0
aI9
aI9
aI3
aI1
aI10
asg600
F1.2594268321990967
sg17
(lp2282
(lp2283
I8
aI-10
aI2
aa(lp2284
I-7
aI-9
aI2
aasg21
S'rand+cegis'
p2285
sa(dp2286
g24
I2
sg25
I7
sg26
I214
sg27
I2
sg28
I1
sg29
I2
sg30
F4.896955966949463
sg31
F2.7926454544067383
sg32
(lp2287
I3
aI0
aI10
aI1
aI10
aI7
asg607
F1.8069655895233154
sg34
S'rand+cegis'
p2288
sg36
(lp2289
(lp2290
I-7
aI-10
aI2
aa(lp2291
I2
aI-7
aI2
aasg40
(lp2292
(lp2293
I-1
aI7
aI10
aI8
aI00
aI00
aI00
aa(lp2294
I-6
aI4
aI4
aI7
aI00
aI01
aI01
aasa(dp2295
g24
I2
sg25
I8
sg26
I210
sg27
I2
sg28
I2
sg29
I2
sg30
F4.77746844291687
sg31
F4.525454044342041
sg32
(lp2296
I8
aI6
aI7
aI7
aI10
aI8
asg607
F1.2340292930603027
sg34
g2288
sg36
(lp2297
(lp2298
I-2
aI-10
aI2
aa(lp2299
I2
aI-6
aI2
aasg40
(lp2300
(lp2301
I-3
aI3
aI-10
aI10
aI01
aI01
aI00
aa(lp2302
I-7
aI-10
aI-8
aI2
aI01
aI00
aI01
aasa(dp2303
g24
I2
sg25
I8
sg26
I208
sg27
I2
sg28
I2
sg29
I2
sg30
F4.749372720718384
sg31
F1.2150523662567139
sg32
(lp2304
I6
aI10
aI6
aI0
aI0
aI0
asg607
F0.9237542152404785
sg34
g2288
sg36
(lp2305
(lp2306
I10
aI8
aI2
aa(lp2307
I-6
aI0
aI2
aasg40
(lp2308
(lp2309
I9
aI9
aI-8
aI9
aI01
aI00
aI00
aa(lp2310
I-1
aI-1
aI-8
aI0
aI00
aI00
aI00
aasa(dp2311
g24
I2
sg25
I8
sg26
I205
sg27
I2
sg28
I2
sg29
I2
sg30
F4.598475933074951
sg31
F3.4505128860473633
sg32
(lp2312
I8
aI9
aI10
aI3
aI6
aI10
asg607
F0.38671422004699707
sg34
g2288
sg36
(lp2313
(lp2314
I-4
aI-10
aI2
aa(lp2315
I7
aI-10
aI2
aasg40
(lp2316
(lp2317
I9
aI9
aI9
aI9
aI00
aI01
aI00
aa(lp2318
I8
aI5
aI1
aI6
aI00
aI00
aI00
aasa(dp2319
g24
I2
sg25
I8
sg26
I212
sg27
I2
sg28
I2
sg29
I2
sg30
F4.71051025390625
sg31
F12.686073303222656
sg32
(lp2320
I9
aI2
aI10
aI8
aI0
aI2
asg607
F1.848013162612915
sg34
g2288
sg36
(lp2321
(lp2322
I-5
aI1
aI2
aa(lp2323
I1
aI10
aI2
aasg40
(lp2324
(lp2325
I7
aI0
aI-1
aI4
aI01
aI00
aI01
aa(lp2326
I4
aI4
aI3
aI7
aI00
aI01
aI00
aasa(dp2327
g24
I2
sg25
I8
sg26
I217
sg27
I2
sg28
I2
sg29
I2
sg30
F4.905806303024292
sg31
F5.8039939403533936
sg32
(lp2328
I7
aI1
aI10
aI9
aI5
aI10
asg607
F3.138232469558716
sg34
g2288
sg36
(lp2329
(lp2330
I-6
aI-4
aI2
aa(lp2331
I7
aI-8
aI2
aasg40
(lp2332
(lp2333
I-6
aI4
aI-7
aI8
aI01
aI01
aI01
aa(lp2334
I0
aI-6
aI1
aI1
aI01
aI00
aI00
aasa(dp2335
g24
I2
sg25
I8
sg26
I211
sg27
I2
sg28
I2
sg29
I2
sg30
F4.499630928039551
sg31
F64.05031371116638
sg32
(lp2336
I7
aI2
aI0
aI8
aI3
aI0
asg607
F1.8811006546020508
sg34
g2288
sg36
(lp2337
(lp2338
I7
aI9
aI2
aa(lp2339
I5
aI-6
aI2
aasg40
(lp2340
(lp2341
I-5
aI-1
aI6
aI5
aI01
aI00
aI00
aa(lp2342
I-1
aI3
aI4
aI8
aI00
aI00
aI00
aasa(dp2343
g24
I2
sg25
I8
sg26
I213
sg27
I2
sg28
I2
sg29
I2
sg30
F4.617903709411621
sg31
F21.28815221786499
sg32
(lp2344
I4
aI10
aI0
aI5
aI0
aI0
asg607
F2.473055362701416
sg34
g2288
sg36
(lp2345
(lp2346
I-1
aI1
aI2
aa(lp2347
I1
aI5
aI2
aasg40
(lp2348
(lp2349
I2
aI1
aI6
aI1
aI00
aI00
aI00
aa(lp2350
I2
aI3
aI10
aI8
aI00
aI01
aI01
aasa(dp2351
g24
I2
sg25
I7
sg26
I207
sg27
I2
sg28
I2
sg29
I1
sg30
F4.438309192657471
sg31
F21.24928379058838
sg32
(lp2352
I6
aI0
aI6
aI8
aI0
aI0
asg607
F1.0352520942687988
sg34
g2288
sg36
(lp2353
(lp2354
I4
aI-7
aI2
aa(lp2355
I3
aI10
aI2
aasg40
(lp2356
(lp2357
I-9
aI-7
aI-2
aI2
aI00
aI00
aI01
aa(lp2358
I1
aI-2
aI-10
aI9
aI01
aI00
aI00
aasa(dp2359
g24
I2
sg25
I7
sg26
I215
sg27
I2
sg28
I1
sg29
I2
sg30
F4.5761168003082275
sg31
F9.672353029251099
sg32
(lp2360
I3
aI5
aI7
aI9
aI7
aI5
asg607
F3.2500603199005127
sg34
g2288
sg36
(lp2361
(lp2362
I-7
aI-5
aI2
aa(lp2363
I1
aI4
aI2
aasg40
(lp2364
(lp2365
I-4
aI-7
aI10
aI-2
aI00
aI00
aI00
aa(lp2366
I7
aI-10
aI4
aI5
aI00
aI01
aI01
aasa(dp2367
g24
I2
sg25
I8
sg26
I217
sg27
I2
sg28
I2
sg29
I2
sg30
F4.640664100646973
sg31
F720.1820363998413
sg32
(lp2368
I2
aI9
aI9
aI7
aI5
aI0
asg607
F3.881704330444336
sg34
g2288
sg36
(lp2369
(lp2370
I-4
aI9
aI2
aa(lp2371
I-3
aI3
aI2
aasg40
(lp2372
(lp2373
I-2
aI-5
aI-10
aI6
aI00
aI01
aI01
aa(lp2374
I-7
aI-1
aI-10
aI8
aI01
aI00
aI01
aasa(dp2375
g24
I1
sg25
I5
sg26
I206
sg27
I0
sg28
I2
sg29
I2
sg30
F4.432512998580933
sg31
F1.3221240043640137
sg32
(lp2376
I6
aI6
aI9
aI6
aI1
aI0
asg607
F0.8436288833618164
sg34
g2288
sg36
(lp2377
(lp2378
I-5
aI2
aI2
aasg40
(lp2379
sa(dp2380
g24
I2
sg25
I8
sg26
I231
sg27
I2
sg28
I2
sg29
I2
sg30
F5.073167562484741
sg31
F1.6957793235778809
sg32
(lp2381
I8
aI0
aI6
aI10
aI0
aI5
asg607
F8.951126098632812
sg34
g2288
sg36
(lp2382
(lp2383
I-4
aI-2
aI2
aa(lp2384
I9
aI8
aI2
aasg40
(lp2385
(lp2386
I7
aI-3
aI-10
aI3
aI00
aI00
aI00
aa(lp2387
I-9
aI-3
aI-10
aI10
aI00
aI00
aI00
aasa(dp2388
g24
I2
sg25
I8
sg26
I221
sg27
I2
sg28
I2
sg29
I2
sg30
F4.7932915687561035
sg31
F17.064077615737915
sg32
(lp2389
I5
aI0
aI10
aI1
aI2
aI0
asg607
F5.470423936843872
sg34
g2288
sg36
(lp2390
(lp2391
I-5
aI-2
aI2
aa(lp2392
I-10
aI3
aI2
aasg40
(lp2393
(lp2394
I6
aI-1
aI2
aI0
aI00
aI01
aI00
aa(lp2395
I5
aI-1
aI6
aI0
aI01
aI00
aI01
aasa(dp2396
g24
I2
sg25
I8
sg26
I212
sg27
I2
sg28
I2
sg29
I2
sg30
F4.601752758026123
sg31
F22.673128366470337
sg32
(lp2397
I7
aI9
aI0
aI10
aI2
aI0
asg607
F2.86523175239563
sg34
g2288
sg36
(lp2398
(lp2399
I7
aI2
aI2
aa(lp2400
I-7
aI-6
aI2
aasg40
(lp2401
(lp2402
I-5
aI-10
aI-3
aI-6
aI01
aI01
aI00
aa(lp2403
I5
aI5
aI8
aI9
aI01
aI01
aI00
aasa(dp2404
g24
I2
sg25
I8
sg26
I219
sg27
I2
sg28
I2
sg29
I2
sg30
F4.814059257507324
sg31
F5.206930160522461
sg32
(lp2405
I10
aI9
aI2
aI7
aI8
aI1
asg607
F5.934477090835571
sg34
g2288
sg36
(lp2406
(lp2407
I-10
aI4
aI2
aa(lp2408
I6
aI-3
aI2
aasg40
(lp2409
(lp2410
I7
aI4
aI4
aI5
aI00
aI00
aI01
aa(lp2411
I-1
aI-10
aI-1
aI-10
aI01
aI01
aI00
aasa(dp2412
g24
I2
sg25
I7
sg26
I213
sg27
I2
sg28
I1
sg29
I2
sg30
F4.572869539260864
sg31
F1.9970464706420898
sg32
(lp2413
I2
aI6
aI10
aI0
aI10
aI1
asg607
F3.4225990772247314
sg34
g2288
sg36
(lp2414
(lp2415
I-1
aI8
aI2
aa(lp2416
I-8
aI10
aI2
aasg40
(lp2417
(lp2418
I-8
aI0
aI2
aI3
aI00
aI01
aI00
aa(lp2419
I7
aI-2
aI3
aI4
aI00
aI01
aI01
aasa(dp2420
g24
I2
sg25
I7
sg26
I211
sg27
I2
sg28
I1
sg29
I2
sg30
F4.646300792694092
sg31
F3.4444472789764404
sg32
(lp2421
I8
aI7
aI4
aI0
aI10
aI3
asg607
F2.8590216636657715
sg34
g2288
sg36
(lp2422
(lp2423
I7
aI5
aI2
aa(lp2424
I-3
aI10
aI2
aasg40
(lp2425
(lp2426
I-2
aI0
aI-6
aI10
aI00
aI01
aI00
aa(lp2427
I-10
aI-1
aI-5
aI6
aI00
aI01
aI00
aasa(dp2428
g24
I2
sg25
I8
sg26
I206
sg27
I2
sg28
I2
sg29
I2
sg30
F4.373132944107056
sg31
F6.671809673309326
sg32
(lp2429
I10
aI5
aI10
aI10
aI5
aI6
asg607
F1.0569567680358887
sg34
g2288
sg36
(lp2430
(lp2431
I-9
aI6
aI2
aa(lp2432
I-5
aI6
aI2
aasg40
(lp2433
(lp2434
I-5
aI-7
aI-8
aI10
aI00
aI00
aI01
aa(lp2435
I1
aI4
aI-3
aI7
aI01
aI01
aI00
aasa(dp2436
g24
I2
sg25
I8
sg26
I213
sg27
I2
sg28
I2
sg29
I2
sg30
F4.6451256275177
sg31
F46.01233506202698
sg32
(lp2437
I1
aI9
aI0
aI7
aI5
aI8
asg607
F3.7403652667999268
sg34
g2288
sg36
(lp2438
(lp2439
I7
aI5
aI2
aa(lp2440
I3
aI4
aI2
aasg40
(lp2441
(lp2442
I-3
aI-10
aI-10
aI3
aI01
aI01
aI01
aa(lp2443
I-5
aI-6
aI-9
aI1
aI01
aI01
aI00
aasa(dp2444
g24
I2
sg25
I8
sg26
I213
sg27
I2
sg28
I2
sg29
I2
sg30
F4.617503881454468
sg31
F11.100615978240967
sg32
(lp2445
I0
aI4
aI10
aI4
aI6
aI0
asg607
F3.812700033187866
sg34
g2288
sg36
(lp2446
(lp2447
I1
aI-4
aI2
aa(lp2448
I6
aI3
aI2
aasg40
(lp2449
(lp2450
I0
aI7
aI-9
aI8
aI00
aI00
aI00
aa(lp2451
I-4
aI5
aI8
aI9
aI00
aI01
aI01
aasa(dp2452
g24
I2
sg25
I8
sg26
I207
sg27
I2
sg28
I2
sg29
I2
sg30
F4.442275047302246
sg31
F4.721712827682495
sg32
(lp2453
I8
aI8
aI5
aI7
aI8
aI3
asg607
F1.568800926208496
sg34
g2288
sg36
(lp2454
(lp2455
I4
aI9
aI2
aa(lp2456
I-4
aI7
aI2
aasg40
(lp2457
(lp2458
I10
aI1
aI3
aI1
aI01
aI01
aI01
aa(lp2459
I8
aI-2
aI-4
aI10
aI00
aI00
aI01
aasa(dp2460
g24
I2
sg25
I7
sg26
I217
sg27
I2
sg28
I1
sg29
I2
sg30
F4.742333650588989
sg31
F2.050595760345459
sg32
(lp2461
I10
aI9
aI2
aI0
aI0
aI3
asg607
F5.671626091003418
sg34
g2288
sg36
(lp2462
(lp2463
I7
aI10
aI2
aa(lp2464
I4
aI9
aI2
aasg40
(lp2465
(lp2466
I-10
aI-4
aI7
aI-1
aI00
aI00
aI00
aa(lp2467
I-2
aI0
aI-3
aI1
aI01
aI01
aI00
aasa(dp2468
g24
I2
sg25
I8
sg26
I223
sg27
I2
sg28
I2
sg29
I2
sg30
F4.890371084213257
sg31
F11.305692434310913
sg32
(lp2469
I5
aI1
aI5
aI9
aI0
aI10
asg607
F8.350006103515625
sg34
g2288
sg36
(lp2470
(lp2471
I0
aI-5
aI2
aa(lp2472
I-8
aI-10
aI2
aasg40
(lp2473
(lp2474
I-10
aI-3
aI9
aI-3
aI00
aI00
aI00
aa(lp2475
I9
aI-2
aI-4
aI2
aI01
aI01
aI01
aasa(dp2476
g24
I2
sg25
I7
sg26
I207
sg27
I2
sg28
I2
sg29
I1
sg30
F4.510145902633667
sg31
F7.957608938217163
sg32
(lp2477
I8
aI10
aI4
aI9
aI2
aI4
asg607
F1.718869686126709
sg34
g2288
sg36
(lp2478
(lp2479
I3
aI3
aI2
aa(lp2480
I-7
aI4
aI2
aasg40
(lp2481
(lp2482
I-7
aI6
aI-7
aI6
aI01
aI00
aI00
aa(lp2483
I10
aI1
aI-7
aI10
aI01
aI00
aI01
aasa(dp2484
g24
I2
sg25
I7
sg26
I209
sg27
I2
sg28
I2
sg29
I1
sg30
F4.536380767822266
sg31
F4.743259906768799
sg32
(lp2485
I10
aI0
aI8
aI8
aI7
aI3
asg607
F2.599980592727661
sg34
g2288
sg36
(lp2486
(lp2487
I6
aI10
aI2
aa(lp2488
I1
aI-7
aI2
aasg40
(lp2489
(lp2490
I-9
aI0
aI3
aI10
aI01
aI00
aI00
aa(lp2491
I-3
aI-9
aI-10
aI3
aI00
aI00
aI01
aasa(dp2492
g24
I2
sg25
I8
sg26
I209
sg27
I2
sg28
I2
sg29
I2
sg30
F4.49834418296814
sg31
F30.506428956985474
sg32
(lp2493
I9
aI0
aI10
aI8
aI4
aI10
asg607
F2.6457700729370117
sg34
g2288
sg36
(lp2494
(lp2495
I-1
aI5
aI2
aa(lp2496
I1
aI0
aI2
aasg40
(lp2497
(lp2498
I3
aI-9
aI-7
aI-9
aI00
aI01
aI00
aa(lp2499
I3
aI1
aI-8
aI4
aI00
aI00
aI00
aasa(dp2500
g24
I2
sg25
I8
sg26
I213
sg27
I2
sg28
I2
sg29
I2
sg30
F4.5483832359313965
sg31
F33.47173881530762
sg32
(lp2501
I1
aI2
aI10
aI3
aI0
aI7
asg607
F4.428655624389648
sg34
g2288
sg36
(lp2502
(lp2503
I9
aI-3
aI2
aa(lp2504
I-8
aI-10
aI2
aasg40
(lp2505
(lp2506
I4
aI-4
aI-6
aI5
aI00
aI01
aI00
aa(lp2507
I-10
aI3
aI-3
aI8
aI00
aI01
aI01
aasa(dp2508
g24
I2
sg25
I8
sg26
I210
sg27
I2
sg28
I2
sg29
I2
sg30
F4.529900312423706
sg31
F24.25737190246582
sg32
(lp2509
I1
aI6
aI0
aI9
aI7
aI9
asg607
F3.201129198074341
sg34
g2288
sg36
(lp2510
(lp2511
I1
aI-10
aI2
aa(lp2512
I1
aI5
aI2
aasg40
(lp2513
(lp2514
I7
aI-6
aI4
aI10
aI00
aI00
aI01
aa(lp2515
I4
aI-8
aI2
aI7
aI00
aI01
aI01
aasa(dp2516
g24
I2
sg25
I8
sg26
I212
sg27
I2
sg28
I2
sg29
I2
sg30
F4.566712379455566
sg31
F6.922011137008667
sg32
(lp2517
I3
aI9
aI10
aI10
aI6
aI8
asg607
F4.151638984680176
sg34
g2288
sg36
(lp2518
(lp2519
I-4
aI-9
aI2
aa(lp2520
I-1
aI-6
aI2
aasg40
(lp2521
(lp2522
I5
aI-10
aI8
aI1
aI00
aI00
aI01
aa(lp2523
I4
aI-5
aI1
aI-4
aI01
aI00
aI00
aasa(dp2524
g24
I2
sg25
I8
sg26
I225
sg27
I2
sg28
I2
sg29
I2
sg30
F4.8668718338012695
sg31
F17.31625461578369
sg32
(lp2525
I6
aI2
aI10
aI8
aI8
aI6
asg607
F10.36513066291809
sg34
g2288
sg36
(lp2526
(lp2527
I2
aI-9
aI2
aa(lp2528
I-1
aI-7
aI2
aasg40
(lp2529
(lp2530
I8
aI-4
aI7
aI3
aI00
aI01
aI01
aa(lp2531
I8
aI-10
aI-9
aI2
aI01
aI01
aI01
aasa(dp2532
g24
I2
sg25
I8
sg26
I212
sg27
I2
sg28
I2
sg29
I2
sg30
F4.553662300109863
sg31
F6.397418737411499
sg32
(lp2533
I7
aI9
aI9
aI10
aI9
aI10
asg607
F4.412161111831665
sg34
g2288
sg36
(lp2534
(lp2535
I4
aI-3
aI2
aa(lp2536
I-1
aI-10
aI2
aasg40
(lp2537
(lp2538
I-8
aI-4
aI0
aI-2
aI01
aI00
aI00
aa(lp2539
I7
aI-7
aI-10
aI-7
aI01
aI00
aI00
aasa(dp2540
g24
I2
sg25
I7
sg26
I216
sg27
I2
sg28
I1
sg29
I2
sg30
F4.770484209060669
sg31
F1.683779239654541
sg32
(lp2541
I2
aI7
aI10
aI0
aI9
aI9
asg607
F6.423404216766357
sg34
g2288
sg36
(lp2542
(lp2543
I-7
aI8
aI2
aa(lp2544
I3
aI-5
aI2
aasg40
(lp2545
(lp2546
I6
aI-3
aI-1
aI-3
aI00
aI01
aI00
aa(lp2547
I6
aI-10
aI6
aI-4
aI00
aI01
aI00
aasa(dp2548
g24
I2
sg25
I8
sg26
I225
sg27
I2
sg28
I2
sg29
I2
sg30
F4.864091157913208
sg31
F53.11271262168884
sg32
(lp2549
I4
aI6
aI9
aI2
aI6
aI10
asg607
F10.972915172576904
sg34
g2288
sg36
(lp2550
(lp2551
I-7
aI-5
aI2
aa(lp2552
I0
aI9
aI2
aasg40
(lp2553
(lp2554
I-10
aI-10
aI-7
aI-9
aI00
aI01
aI00
aa(lp2555
I-4
aI2
aI0
aI6
aI00
aI01
aI01
aasa(dp2556
g24
I2
sg25
I8
sg26
I213
sg27
I2
sg28
I2
sg29
I2
sg30
F4.558563232421875
sg31
F35.725239276885986
sg32
(lp2557
I1
aI2
aI10
aI9
aI5
aI8
asg607
F5.995532512664795
sg34
g2288
sg36
(lp2558
(lp2559
I1
aI4
aI2
aa(lp2560
I-5
aI-3
aI2
aasg40
(lp2561
(lp2562
I6
aI-10
aI5
aI-3
aI01
aI01
aI01
aa(lp2563
I-5
aI0
aI-10
aI2
aI00
aI00
aI01
aasa(dp2564
g24
I2
sg25
I7
sg26
I210
sg27
I2
sg28
I1
sg29
I2
sg30
F4.544092178344727
sg31
F6.0747151374816895
sg32
(lp2565
I9
aI10
aI9
aI10
aI2
aI8
asg607
F3.546154022216797
sg34
g2288
sg36
(lp2566
(lp2567
I-4
aI-8
aI2
aa(lp2568
I-3
aI-4
aI2
aasg40
(lp2569
(lp2570
I-8
aI4
aI-10
aI6
aI00
aI01
aI00
aa(lp2571
I-9
aI-10
aI3
aI6
aI00
aI00
aI01
aasa(dp2572
g24
I2
sg25
I8
sg26
I211
sg27
I2
sg28
I2
sg29
I2
sg30
F4.5771472454071045
sg31
F15.806775331497192
sg32
(lp2573
I5
aI5
aI8
aI6
aI9
aI7
asg607
F4.150449275970459
sg34
g2288
sg36
(lp2574
(lp2575
I4
aI1
aI2
aa(lp2576
I2
aI-10
aI2
aasg40
(lp2577
(lp2578
I8
aI-4
aI5
aI2
aI00
aI01
aI01
aa(lp2579
I10
aI-1
aI7
aI0
aI01
aI01
aI01
aasa(dp2580
g24
I2
sg25
I8
sg26
I211
sg27
I2
sg28
I2
sg29
I2
sg30
F4.53883957862854
sg31
F4.69781231880188
sg32
(lp2581
I1
aI2
aI7
aI10
aI5
aI10
asg607
F4.199818134307861
sg34
g2288
sg36
(lp2582
(lp2583
I-7
aI7
aI2
aa(lp2584
I-10
aI-1
aI2
aasg40
(lp2585
(lp2586
I2
aI-8
aI-2
aI5
aI00
aI00
aI00
aa(lp2587
I-4
aI1
aI0
aI5
aI00
aI00
aI00
aasa(dp2588
g24
I2
sg25
I8
sg26
I211
sg27
I2
sg28
I2
sg29
I2
sg30
F4.561203241348267
sg31
F4.881101131439209
sg32
(lp2589
I3
aI1
aI5
aI10
aI8
aI5
asg607
F4.236455917358398
sg34
g2288
sg36
(lp2590
(lp2591
I10
aI3
aI2
aa(lp2592
I-10
aI9
aI2
aasg40
(lp2593
(lp2594
I2
aI-4
aI-8
aI7
aI00
aI01
aI00
aa(lp2595
I-1
aI-10
aI-3
aI5
aI00
aI01
aI00
aasa(dp2596
g24
I2
sg25
I8
sg26
I211
sg27
I2
sg28
I2
sg29
I2
sg30
F4.591453790664673
sg31
F6.001328945159912
sg32
(lp2597
I0
aI0
aI6
aI8
aI9
aI0
asg607
F4.376651287078857
sg34
g2288
sg36
(lp2598
(lp2599
I5
aI-9
aI2
aa(lp2600
I8
aI-6
aI2
aasg40
(lp2601
(lp2602
I10
aI8
aI5
aI9
aI00
aI00
aI01
aa(lp2603
I-1
aI-10
aI2
aI-10
aI01
aI01
aI00
aasa(dp2604
g24
I2
sg25
I8
sg26
I205
sg27
I2
sg28
I2
sg29
I2
sg30
F4.410617113113403
sg31
F4.693336009979248
sg32
(lp2605
I9
aI4
aI9
aI7
aI3
aI10
asg607
F1.0866219997406006
sg34
g2288
sg36
(lp2606
(lp2607
I9
aI-2
aI2
aa(lp2608
I8
aI-3
aI2
aasg40
(lp2609
(lp2610
I5
aI6
aI8
aI9
aI01
aI00
aI00
aa(lp2611
I8
aI0
aI-10
aI1
aI00
aI01
aI00
aasa(dp2612
g24
I2
sg25
I8
sg26
I218
sg27
I2
sg28
I2
sg29
I2
sg30
F4.7724316120147705
sg31
F44.91652536392212
sg32
(lp2613
I4
aI1
aI0
aI10
aI5
aI10
asg607
F8.416459321975708
sg34
g2288
sg36
(lp2614
(lp2615
I9
aI4
aI2
aa(lp2616
I-5
aI-3
aI2
aasg40
(lp2617
(lp2618
I10
aI-9
aI5
aI1
aI01
aI00
aI01
aa(lp2619
I2
aI-3
aI-3
aI5
aI00
aI00
aI00
aasa(dp2620
g24
I2
sg25
I8
sg26
I218
sg27
I2
sg28
I2
sg29
I2
sg30
F4.773991107940674
sg31
F2.952913999557495
sg32
(lp2621
I9
aI1
aI6
aI10
aI1
aI3
asg607
F8.452409744262695
sg34
g2288
sg36
(lp2622
(lp2623
I9
aI3
aI2
aa(lp2624
I7
aI-10
aI2
aasg40
(lp2625
(lp2626
I10
aI-8
aI2
aI-7
aI01
aI00
aI00
aa(lp2627
I2
aI7
aI3
aI10
aI01
aI00
aI00
aasa(dp2628
g24
I2
sg25
I8
sg26
I217
sg27
I2
sg28
I2
sg29
I2
sg30
F4.725062608718872
sg31
F30.85358762741089
sg32
(lp2629
I9
aI4
aI5
aI7
aI2
aI2
asg607
F8.15808629989624
sg34
g2288
sg36
(lp2630
(lp2631
I1
aI2
aI2
aa(lp2632
I7
aI4
aI2
aasg40
(lp2633
(lp2634
I-3
aI3
aI10
aI9
aI00
aI00
aI00
aa(lp2635
I1
aI-1
aI9
aI10
aI01
aI00
aI01
aasa(dp2636
g24
I2
sg25
I7
sg26
I205
sg27
I2
sg28
I2
sg29
I1
sg30
F4.386584043502808
sg31
F6.409849166870117
sg32
(lp2637
I2
aI10
aI0
aI2
aI0
aI9
asg607
F1.1445579528808594
sg34
g2288
sg36
(lp2638
(lp2639
I5
aI-3
aI2
aa(lp2640
I5
aI-10
aI2
aasg40
(lp2641
(lp2642
I3
aI-2
aI5
aI7
aI00
aI00
aI00
aa(lp2643
I10
aI2
aI-2
aI6
aI00
aI00
aI01
aasa(dp2644
g24
I2
sg25
I8
sg26
I224
sg27
I2
sg28
I2
sg29
I2
sg30
F4.813239336013794
sg31
F93.23544979095459
sg32
(lp2645
I7
aI1
aI8
aI1
aI5
aI10
asg607
F12.342917442321777
sg34
g2288
sg36
(lp2646
(lp2647
I-6
aI5
aI2
aa(lp2648
I-10
aI-2
aI2
aasg40
(lp2649
(lp2650
I-9
aI1
aI-7
aI9
aI01
aI01
aI00
aa(lp2651
I1
aI3
aI-7
aI8
aI01
aI01
aI00
aasa(dp2652
g24
I2
sg25
I8
sg26
I213
sg27
I2
sg28
I2
sg29
I2
sg30
F4.6316022872924805
sg31
F0.9140827655792236
sg32
(lp2653
I2
aI0
aI5
aI5
aI0
aI10
asg607
F6.012279272079468
sg34
g2288
sg36
(lp2654
(lp2655
I9
aI0
aI2
aa(lp2656
I2
aI-1
aI2
aasg40
(lp2657
(lp2658
I2
aI-5
aI1
aI-5
aI01
aI00
aI00
aa(lp2659
I-8
aI-3
aI-9
aI-2
aI01
aI01
aI00
aasa(dp2660
g24
I2
sg25
I8
sg26
I210
sg27
I2
sg28
I2
sg29
I2
sg30
F4.491488218307495
sg31
F6.087409019470215
sg32
(lp2661
I6
aI9
aI2
aI8
aI5
aI0
asg607
F4.18439507484436
sg34
g2288
sg36
(lp2662
(lp2663
I0
aI10
aI2
aa(lp2664
I10
aI-9
aI2
aasg40
(lp2665
(lp2666
I7
aI-7
aI-6
aI10
aI01
aI01
aI00
aa(lp2667
I-3
aI-8
aI1
aI5
aI00
aI00
aI00
aasa(dp2668
g24
I2
sg25
I8
sg26
I219
sg27
I2
sg28
I2
sg29
I2
sg30
F4.755704402923584
sg31
F28.15876579284668
sg32
(lp2669
I0
aI4
aI4
aI0
aI7
aI0
asg607
F9.926537990570068
sg34
g2288
sg36
(lp2670
(lp2671
I-6
aI6
aI2
aa(lp2672
I10
aI5
aI2
aasg40
(lp2673
(lp2674
I-5
aI-2
aI8
aI2
aI00
aI00
aI01
aa(lp2675
I3
aI-5
aI-7
aI-1
aI00
aI01
aI01
aasa(dp2676
g24
I2
sg25
I8
sg26
I214
sg27
I2
sg28
I2
sg29
I2
sg30
F4.596269607543945
sg31
F4.502764463424683
sg32
(lp2677
I8
aI2
aI10
aI5
aI3
aI0
asg607
F6.861593008041382
sg34
g2288
sg36
(lp2678
(lp2679
I2
aI-8
aI2
aa(lp2680
I-8
aI9
aI2
aasg40
(lp2681
(lp2682
I6
aI-6
aI4
aI2
aI00
aI00
aI00
aa(lp2683
I9
aI3
aI-9
aI6
aI01
aI00
aI00
aasa(dp2684
g24
I2
sg25
I8
sg26
I207
sg27
I2
sg28
I2
sg29
I2
sg30
F4.452832221984863
sg31
F21.51832866668701
sg32
(lp2685
I8
aI8
aI6
aI6
aI9
aI10
asg607
F2.457883358001709
sg34
g2288
sg36
(lp2686
(lp2687
I5
aI8
aI2
aa(lp2688
I-2
aI8
aI2
aasg40
(lp2689
(lp2690
I-5
aI-3
aI6
aI4
aI01
aI00
aI01
aa(lp2691
I1
aI-2
aI10
aI2
aI00
aI01
aI01
aasa(dp2692
g24
I2
sg25
I8
sg26
I212
sg27
I2
sg28
I2
sg29
I2
sg30
F4.5421998500823975
sg31
F12.209044456481934
sg32
(lp2693
I5
aI2
aI9
aI1
aI7
aI1
asg607
F5.596607208251953
sg34
g2288
sg36
(lp2694
(lp2695
I-3
aI9
aI2
aa(lp2696
I10
aI-10
aI2
aasg40
(lp2697
(lp2698
I7
aI-8
aI-10
aI10
aI01
aI00
aI00
aa(lp2699
I3
aI-2
aI5
aI3
aI00
aI01
aI01
aasa(dp2700
g24
I2
sg25
I8
sg26
I215
sg27
I2
sg28
I2
sg29
I2
sg30
F4.5990800857543945
sg31
F20.67298436164856
sg32
(lp2701
I2
aI2
aI0
aI5
aI8
aI10
asg607
F7.545440673828125
sg34
g2288
sg36
(lp2702
(lp2703
I9
aI-7
aI2
aa(lp2704
I-2
aI0
aI2
aasg40
(lp2705
(lp2706
I0
aI-6
aI0
aI4
aI00
aI00
aI00
aa(lp2707
I0
aI-7
aI-1
aI-7
aI00
aI00
aI00
aasa(dp2708
g24
I2
sg25
I8
sg26
I221
sg27
I2
sg28
I2
sg29
I2
sg30
F4.8133299350738525
sg31
F7.201143264770508
sg32
(lp2709
I0
aI5
aI6
aI8
aI2
aI7
asg607
F11.471461772918701
sg34
g2288
sg36
(lp2710
(lp2711
I-7
aI-1
aI2
aa(lp2712
I0
aI3
aI2
aasg40
(lp2713
(lp2714
I-10
aI-10
aI2
aI2
aI01
aI00
aI00
aa(lp2715
I-5
aI-5
aI-2
aI3
aI01
aI01
aI00
aasa(dp2716
g24
I2
sg25
I8
sg26
I218
sg27
I2
sg28
I2
sg29
I2
sg30
F4.749894857406616
sg31
F13.300607442855835
sg32
(lp2717
I10
aI0
aI2
aI9
aI6
aI5
asg607
F9.727057933807373
sg34
g2288
sg36
(lp2718
(lp2719
I-8
aI-10
aI2
aa(lp2720
I-3
aI-2
aI2
aasg40
(lp2721
(lp2722
I-7
aI-7
aI-10
aI-7
aI01
aI00
aI01
aa(lp2723
I-4
aI-6
aI-2
aI-4
aI01
aI01
aI00
aasa(dp2724
g24
I2
sg25
I8
sg26
I213
sg27
I2
sg28
I2
sg29
I2
sg30
F4.620628118515015
sg31
F15.70439100265503
sg32
(lp2725
I6
aI6
aI10
aI2
aI1
aI9
asg607
F6.561692237854004
sg34
g2288
sg36
(lp2726
(lp2727
I-4
aI-1
aI2
aa(lp2728
I7
aI-9
aI2
aasg40
(lp2729
(lp2730
I-7
aI-10
aI-9
aI-6
aI01
aI00
aI00
aa(lp2731
I-5
aI-2
aI-7
aI-2
aI01
aI00
aI00
aasa(dp2732
g24
I2
sg25
I7
sg26
I204
sg27
I1
sg28
I2
sg29
I2
sg30
F4.371423006057739
sg31
F0.42194318771362305
sg32
(lp2733
I1
aI1
aI5
aI8
aI8
aI10
asg607
F0.6485471725463867
sg34
g2288
sg36
(lp2734
(lp2735
I-1
aI8
aI2
aa(lp2736
I8
aI8
aI2
aasg40
(lp2737
(lp2738
I10
aI9
aI8
aI10
aI00
aI00
aI00
aasa(dp2739
g24
I2
sg25
I8
sg26
I219
sg27
I2
sg28
I2
sg29
I2
sg30
F4.837035417556763
sg31
F47.3908007144928
sg32
(lp2740
I1
aI5
aI0
aI1
aI5
aI3
asg607
F10.507760286331177
sg34
g2288
sg36
(lp2741
(lp2742
I1
aI10
aI2
aa(lp2743
I-1
aI-8
aI2
aasg40
(lp2744
(lp2745
I1
aI-5
aI4
aI3
aI00
aI00
aI01
aa(lp2746
I0
aI-7
aI0
aI5
aI01
aI01
aI00
aasa(dp2747
g24
I2
sg25
I8
sg26
I212
sg27
I2
sg28
I2
sg29
I2
sg30
F4.618403196334839
sg31
F43.496283531188965
sg32
(lp2748
I1
aI9
aI10
aI3
aI7
aI1
asg607
F5.940093040466309
sg34
g2288
sg36
(lp2749
(lp2750
I-3
aI-4
aI2
aa(lp2751
I4
aI-4
aI2
aasg40
(lp2752
(lp2753
I7
aI-6
aI-1
aI10
aI00
aI01
aI00
aa(lp2754
I2
aI-1
aI-2
aI5
aI01
aI00
aI01
aasa(dp2755
g24
I2
sg25
I8
sg26
I211
sg27
I2
sg28
I2
sg29
I2
sg30
F4.5124671459198
sg31
F27.774315357208252
sg32
(lp2756
I5
aI3
aI6
aI6
aI7
aI2
asg607
F5.321678161621094
sg34
g2288
sg36
(lp2757
(lp2758
I-1
aI6
aI2
aa(lp2759
I-3
aI-4
aI2
aasg40
(lp2760
(lp2761
I-7
aI-4
aI-8
aI8
aI00
aI00
aI00
aa(lp2762
I-10
aI-5
aI-1
aI10
aI01
aI00
aI01
aasa(dp2763
g24
I2
sg25
I8
sg26
I221
sg27
I2
sg28
I2
sg29
I2
sg30
F4.747487306594849
sg31
F186.4230124950409
sg32
(lp2764
I0
aI5
aI7
aI5
aI7
aI0
asg607
F12.170148372650146
sg34
g2288
sg36
(lp2765
(lp2766
I-8
aI1
aI2
aa(lp2767
I-10
aI-9
aI2
aasg40
(lp2768
(lp2769
I4
aI-8
aI-6
aI4
aI01
aI01
aI01
aa(lp2770
I-1
aI-2
aI7
aI5
aI00
aI00
aI01
aasa(dp2771
g24
I2
sg25
I8
sg26
I215
sg27
I2
sg28
I2
sg29
I2
sg30
F4.598279714584351
sg31
F25.58027744293213
sg32
(lp2772
I10
aI9
aI2
aI4
aI4
aI9
asg607
F8.089465618133545
sg34
g2288
sg36
(lp2773
(lp2774
I5
aI-1
aI2
aa(lp2775
I-6
aI-9
aI2
aasg40
(lp2776
(lp2777
I10
aI-4
aI2
aI-2
aI01
aI00
aI00
aa(lp2778
I2
aI-10
aI-1
aI-8
aI01
aI00
aI01
aasa(dp2779
g24
I2
sg25
I8
sg26
I216
sg27
I2
sg28
I2
sg29
I2
sg30
F4.68374228477478
sg31
F9.483229160308838
sg32
(lp2780
I1
aI6
aI2
aI1
aI3
aI10
asg607
F8.877795219421387
sg34
g2288
sg36
(lp2781
(lp2782
I-5
aI-5
aI2
aa(lp2783
I-6
aI-8
aI2
aasg40
(lp2784
(lp2785
I-2
aI0
aI1
aI10
aI00
aI01
aI00
aa(lp2786
I5
aI-3
aI-10
aI1
aI00
aI01
aI01
aasa(dp2787
g24
I2
sg25
I8
sg26
I211
sg27
I2
sg28
I2
sg29
I2
sg30
F4.568711996078491
sg31
F28.728349208831787
sg32
(lp2788
I10
aI7
aI4
aI8
aI3
aI3
asg607
F5.5151708126068115
sg34
g2288
sg36
(lp2789
(lp2790
I-9
aI-7
aI2
aa(lp2791
I-3
aI-4
aI2
aasg40
(lp2792
(lp2793
I-3
aI-10
aI-10
aI8
aI00
aI00
aI00
aa(lp2794
I0
aI0
aI-9
aI1
aI01
aI00
aI01
aasa(dp2795
g24
I2
sg25
I8
sg26
I213
sg27
I2
sg28
I2
sg29
I2
sg30
F4.621236085891724
sg31
F9.188865900039673
sg32
(lp2796
I0
aI9
aI6
aI0
aI7
aI4
asg607
F6.937946319580078
sg34
g2288
sg36
(lp2797
(lp2798
I8
aI8
aI2
aa(lp2799
I-5
aI-3
aI2
aasg40
(lp2800
(lp2801
I4
aI5
aI9
aI10
aI00
aI00
aI01
aa(lp2802
I10
aI5
aI0
aI5
aI00
aI00
aI00
aasa(dp2803
g24
I2
sg25
I8
sg26
I213
sg27
I2
sg28
I2
sg29
I2
sg30
F4.630249738693237
sg31
F10.792316675186157
sg32
(lp2804
I10
aI5
aI0
aI6
aI5
aI3
asg607
F7.129856109619141
sg34
g2288
sg36
(lp2805
(lp2806
I-1
aI-6
aI2
aa(lp2807
I10
aI10
aI2
aasg40
(lp2808
(lp2809
I-7
aI-5
aI-6
aI-1
aI00
aI00
aI01
aa(lp2810
I9
aI-4
aI-3
aI3
aI00
aI01
aI01
aasa(dp2811
g24
I2
sg25
I7
sg26
I217
sg27
I2
sg28
I2
sg29
I1
sg30
F4.740922689437866
sg31
F2.8091237545013428
sg32
(lp2812
I9
aI9
aI4
aI1
aI1
aI9
asg607
F9.85368299484253
sg34
g2288
sg36
(lp2813
(lp2814
I2
aI10
aI2
aa(lp2815
I7
aI4
aI2
aasg40
(lp2816
(lp2817
I0
aI3
aI0
aI4
aI01
aI00
aI00
aa(lp2818
I-10
aI2
aI-5
aI2
aI01
aI00
aI00
aasa(dp2819
g24
I2
sg25
I7
sg26
I205
sg27
I2
sg28
I1
sg29
I2
sg30
F4.393539190292358
sg31
F9.880239009857178
sg32
(lp2820
I7
aI6
aI10
aI8
aI1
aI6
asg607
F1.4505512714385986
sg34
g2288
sg36
(lp2821
(lp2822
I0
aI-3
aI2
aa(lp2823
I1
aI-2
aI2
aasg40
(lp2824
(lp2825
I3
aI1
aI-7
aI4
aI00
aI00
aI01
aa(lp2826
I-1
aI-10
aI-8
aI7
aI00
aI00
aI01
aasa(dp2827
g24
I2
sg25
I6
sg26
I210
sg27
I1
sg28
I2
sg29
I1
sg30
F4.466416835784912
sg31
F1.8824200630187988
sg32
(lp2828
I4
aI3
aI4
aI6
aI1
aI10
asg607
F4.946685075759888
sg34
g2288
sg36
(lp2829
(lp2830
I3
aI-8
aI2
aa(lp2831
I0
aI-2
aI2
aasg40
(lp2832
(lp2833
I-4
aI-6
aI1
aI7
aI00
aI00
aI01
aasa(dp2834
g24
I2
sg25
I8
sg26
I216
sg27
I2
sg28
I2
sg29
I2
sg30
F4.680766344070435
sg31
F3.6209073066711426
sg32
(lp2835
I5
aI0
aI10
aI5
aI0
aI10
asg607
F9.310300827026367
sg34
g2288
sg36
(lp2836
(lp2837
I0
aI-9
aI2
aa(lp2838
I-8
aI3
aI2
aasg40
(lp2839
(lp2840
I9
aI-3
aI9
aI0
aI01
aI00
aI01
aa(lp2841
I-7
aI-6
aI9
aI-3
aI01
aI00
aI01
aasaa(lp2842
(dp2843
g3
I2
sg4
I8
sg5
I245
sg6
(lp2844
(lp2845
I4
aI-3
aI6
aI3
aI01
aI00
aI00
aa(lp2846
I-10
aI-5
aI-4
aI10
aI01
aI01
aI00
aasg10
I2
sg11
I2
sg12
I2
sg13
F5.257431983947754
sg14
F2.4941141605377197
sg15
(lp2847
I0
aI9
aI9
aI3
aI1
aI6
asg600
F0.3104219436645508
sg17
(lp2848
(lp2849
I-7
aI-5
aI2
aa(lp2850
I8
aI-6
aI2
aasg21
S'h1+cegis'
p2851
sa(dp2852
g24
I2
sg25
I7
sg26
I234
sg27
I2
sg28
I1
sg29
I2
sg30
F5.35981297492981
sg31
F1.8319041728973389
sg32
(lp2853
I7
aI0
aI10
aI0
aI10
aI7
asg607
F0.4904189109802246
sg34
S'h1+cegis'
p2854
sg36
(lp2855
(lp2856
I2
aI-7
aI2
aa(lp2857
I-7
aI-10
aI2
aasg40
(lp2858
(lp2859
I-6
aI4
aI4
aI7
aI00
aI01
aI01
aa(lp2860
I-1
aI7
aI10
aI8
aI00
aI00
aI00
aasa(dp2861
g24
I2
sg25
I8
sg26
I281
sg27
I2
sg28
I2
sg29
I2
sg30
F6.22580885887146
sg31
F2.129955291748047
sg32
(lp2862
I8
aI6
aI0
aI7
aI10
aI4
asg607
F0.3445260524749756
sg34
g2854
sg36
(lp2863
(lp2864
I5
aI-6
aI2
aa(lp2865
I9
aI-2
aI2
aasg40
(lp2866
(lp2867
I4
aI7
aI-3
aI10
aI01
aI01
aI00
aa(lp2868
I0
aI-6
aI-1
aI6
aI01
aI00
aI01
aasa(dp2869
g24
I2
sg25
I8
sg26
I187
sg27
I2
sg28
I2
sg29
I2
sg30
F4.228164911270142
sg31
F1.203587293624878
sg32
(lp2870
I6
aI10
aI9
aI0
aI0
aI2
asg607
F0.369243860244751
sg34
g2854
sg36
(lp2871
(lp2872
I-9
aI-2
aI2
aa(lp2873
I7
aI6
aI2
aasg40
(lp2874
(lp2875
I-5
aI7
aI3
aI7
aI00
aI00
aI00
aa(lp2876
I10
aI7
aI7
aI8
aI00
aI01
aI00
aasa(dp2877
g24
I2
sg25
I7
sg26
I278
sg27
I1
sg28
I2
sg29
I2
sg30
F6.3463239669799805
sg31
F1.3295209407806396
sg32
(lp2878
I8
aI9
aI10
aI3
aI6
aI10
asg607
F0.38879990577697754
sg34
g2854
sg36
(lp2879
(lp2880
I7
aI-10
aI2
aa(lp2881
I-4
aI-10
aI2
aasg40
(lp2882
(lp2883
I8
aI5
aI1
aI6
aI00
aI00
aI00
aasa(dp2884
g24
I2
sg25
I8
sg26
I228
sg27
I2
sg28
I2
sg29
I2
sg30
F5.104681968688965
sg31
F2.44874906539917
sg32
(lp2885
I2
aI9
aI10
aI0
aI8
aI2
asg607
F0.2016160488128662
sg34
g2854
sg36
(lp2886
(lp2887
I1
aI10
aI2
aa(lp2888
I-5
aI1
aI2
aasg40
(lp2889
(lp2890
I7
aI0
aI-1
aI4
aI00
aI01
aI01
aa(lp2891
I4
aI4
aI3
aI9
aI01
aI00
aI00
aasa(dp2892
g24
I2
sg25
I8
sg26
I309
sg27
I2
sg28
I2
sg29
I2
sg30
F6.928765058517456
sg31
F3.196610927581787
sg32
(lp2893
I1
aI7
aI10
aI5
aI9
aI8
asg607
F0.44155192375183105
sg34
g2854
sg36
(lp2894
(lp2895
I-6
aI-2
aI2
aa(lp2896
I7
aI-6
aI2
aasg40
(lp2897
(lp2898
I-6
aI6
aI-7
aI10
aI01
aI01
aI01
aa(lp2899
I0
aI-4
aI1
aI3
aI00
aI01
aI00
aasa(dp2900
g24
I2
sg25
I8
sg26
I239
sg27
I2
sg28
I2
sg29
I2
sg30
F5.077660083770752
sg31
F1.2139158248901367
sg32
(lp2901
I7
aI2
aI0
aI8
aI3
aI0
asg607
F0.23013710975646973
sg34
g2854
sg36
(lp2902
(lp2903
I7
aI9
aI2
aa(lp2904
I5
aI-6
aI2
aasg40
(lp2905
(lp2906
I-5
aI-1
aI6
aI5
aI01
aI00
aI00
aa(lp2907
I-1
aI3
aI4
aI8
aI00
aI00
aI00
aasa(dp2908
g24
I2
sg25
I8
sg26
I226
sg27
I2
sg28
I2
sg29
I2
sg30
F4.794428110122681
sg31
F1.2228188514709473
sg32
(lp2909
I4
aI10
aI1
aI5
aI0
aI10
asg607
F0.24389195442199707
sg34
g2854
sg36
(lp2910
(lp2911
I0
aI-5
aI2
aa(lp2912
I-2
aI-9
aI2
aasg40
(lp2913
(lp2914
I-10
aI-10
aI5
aI-9
aI00
aI00
aI00
aa(lp2915
I2
aI-7
aI9
aI-2
aI00
aI01
aI01
aasa(dp2916
g24
I2
sg25
I8
sg26
I213
sg27
I2
sg28
I2
sg29
I2
sg30
F4.483623027801514
sg31
F1.243941068649292
sg32
(lp2917
I0
aI6
aI6
aI0
aI8
aI3
asg607
F0.255997896194458
sg34
g2854
sg36
(lp2918
(lp2919
I3
aI7
aI2
aa(lp2920
I4
aI-10
aI2
aasg40
(lp2921
(lp2922
I-9
aI-10
aI-2
aI-1
aI00
aI00
aI01
aa(lp2923
I1
aI-5
aI-10
aI6
aI00
aI00
aI00
aasa(dp2924
g24
I2
sg25
I7
sg26
I233
sg27
I2
sg28
I1
sg29
I2
sg30
F5.011594772338867
sg31
F2.7620131969451904
sg32
(lp2925
I9
aI5
aI10
aI10
aI7
aI0
asg607
F0.5475020408630371
sg34
g2854
sg36
(lp2926
(lp2927
I-10
aI0
aI2
aa(lp2928
I-2
aI9
aI2
aasg40
(lp2929
(lp2930
I-7
aI-2
aI7
aI3
aI00
aI00
aI00
aa(lp2931
I4
aI-5
aI-1
aI10
aI00
aI01
aI01
aasa(dp2932
g24
I2
sg25
I8
sg26
I274
sg27
I2
sg28
I2
sg29
I2
sg30
F5.898745059967041
sg31
F3.4672420024871826
sg32
(lp2933
I9
aI2
aI9
aI5
aI7
aI0
asg607
F0.27285003662109375
sg34
g2854
sg36
(lp2934
(lp2935
I-4
aI9
aI2
aa(lp2936
I-3
aI3
aI2
aasg40
(lp2937
(lp2938
I-2
aI-5
aI-10
aI6
aI01
aI00
aI01
aa(lp2939
I-7
aI-1
aI-10
aI8
aI00
aI01
aI01
aasa(dp2940
g24
I2
sg25
I6
sg26
I118
sg27
I0
sg28
I2
sg29
I2
sg30
F2.5200979709625244
sg31
F0.2797060012817383
sg32
(lp2941
I6
aI6
aI8
aI1
aI6
aI2
asg607
F0.2811717987060547
sg34
g2854
sg36
(lp2942
(lp2943
I-10
aI-6
aI2
aa(lp2944
I-4
aI0
aI2
aasg40
(lp2945
sa(dp2946
g24
I2
sg25
I8
sg26
I220
sg27
I2
sg28
I2
sg29
I2
sg30
F4.720214128494263
sg31
F0.6257798671722412
sg32
(lp2947
I0
aI8
aI5
aI0
aI10
aI10
asg607
F0.28629302978515625
sg34
g2854
sg36
(lp2948
(lp2949
I10
aI3
aI2
aa(lp2950
I-3
aI-7
aI2
aasg40
(lp2951
(lp2952
I8
aI-8
aI-9
aI4
aI00
aI00
aI00
aa(lp2953
I-9
aI5
aI-9
aI5
aI00
aI00
aI00
aasa(dp2954
g24
I2
sg25
I8
sg26
I93
sg27
I2
sg28
I2
sg29
I2
sg30
F1.9701440334320068
sg31
F2.147327184677124
sg32
(lp2955
I0
aI5
aI10
aI2
aI1
aI0
asg607
F0.30280590057373047
sg34
g2854
sg36
(lp2956
(lp2957
I-5
aI-2
aI2
aa(lp2958
I-10
aI3
aI2
aasg40
(lp2959
(lp2960
I5
aI-1
aI6
aI0
aI00
aI01
aI01
aa(lp2961
I6
aI-1
aI2
aI0
aI01
aI00
aI00
aasa(dp2962
g24
I2
sg25
I8
sg26
I222
sg27
I2
sg28
I2
sg29
I2
sg30
F4.7628560066223145
sg31
F3.721662998199463
sg32
(lp2963
I9
aI7
aI0
aI2
aI10
aI0
asg607
F0.3084390163421631
sg34
g2854
sg36
(lp2964
(lp2965
I-7
aI-6
aI2
aa(lp2966
I7
aI2
aI2
aasg40
(lp2967
(lp2968
I5
aI5
aI8
aI9
aI01
aI01
aI00
aa(lp2969
I-5
aI-10
aI-1
aI-6
aI01
aI00
aI00
aasa(dp2970
g24
I2
sg25
I8
sg26
I245
sg27
I2
sg28
I2
sg29
I2
sg30
F5.4722230434417725
sg31
F0.8831160068511963
sg32
(lp2971
I9
aI10
aI0
aI8
aI7
aI0
asg607
F0.32776808738708496
sg34
g2854
sg36
(lp2972
(lp2973
I-8
aI5
aI2
aa(lp2974
I8
aI-2
aI2
aasg40
(lp2975
(lp2976
I-10
aI-10
aI-10
aI-10
aI00
aI00
aI01
aa(lp2977
I9
aI5
aI6
aI6
aI00
aI00
aI01
aasa(dp2978
g24
I2
sg25
I7
sg26
I224
sg27
I2
sg28
I1
sg29
I2
sg30
F4.799581050872803
sg31
F3.619982957839966
sg32
(lp2979
I10
aI6
aI7
aI6
aI10
aI1
asg607
F0.6720771789550781
sg34
g2854
sg36
(lp2980
(lp2981
I2
aI8
aI2
aa(lp2982
I-5
aI10
aI2
aasg40
(lp2983
(lp2984
I-5
aI1
aI5
aI3
aI00
aI01
aI00
aa(lp2985
I10
aI-2
aI6
aI4
aI00
aI01
aI01
aasa(dp2986
g24
I2
sg25
I8
sg26
I199
sg27
I2
sg28
I2
sg29
I2
sg30
F4.271276950836182
sg31
F3.3371288776397705
sg32
(lp2987
I7
aI0
aI1
aI10
aI0
aI3
asg607
F0.7474370002746582
sg34
g2854
sg36
(lp2988
(lp2989
I0
aI10
aI2
aa(lp2990
I10
aI5
aI2
aasg40
(lp2991
(lp2992
I1
aI0
aI-3
aI10
aI01
aI00
aI00
aa(lp2993
I-7
aI3
aI-2
aI6
aI01
aI00
aI00
aasa(dp2994
g24
I2
sg25
I8
sg26
I321
sg27
I2
sg28
I2
sg29
I2
sg30
F6.783077001571655
sg31
F2.5804600715637207
sg32
(lp2995
I10
aI5
aI8
aI10
aI5
aI9
asg607
F1.4295878410339355
sg34
g2854
sg36
(lp2996
(lp2997
I-7
aI3
aI2
aa(lp2998
I-3
aI3
aI2
aasg40
(lp2999
(lp3000
I3
aI1
aI-3
aI9
aI01
aI01
aI00
aa(lp3001
I-3
aI-10
aI-6
aI7
aI00
aI00
aI01
aasa(dp3002
g24
I2
sg25
I8
sg26
I227
sg27
I2
sg28
I2
sg29
I2
sg30
F4.792608022689819
sg31
F5.678771018981934
sg32
(lp3003
I9
aI1
aI0
aI5
aI7
aI4
asg607
F0.38898301124572754
sg34
g2854
sg36
(lp3004
(lp3005
I3
aI8
aI2
aa(lp3006
I7
aI9
aI2
aasg40
(lp3007
(lp3008
I-3
aI-6
aI-10
aI7
aI00
aI01
aI01
aa(lp3009
I-8
aI-6
aI-9
aI5
aI00
aI01
aI00
aasa(dp3010
g24
I2
sg25
I8
sg26
I279
sg27
I2
sg28
I2
sg29
I2
sg30
F5.984514951705933
sg31
F2.379020929336548
sg32
(lp3011
I0
aI4
aI10
aI4
aI6
aI0
asg607
F0.3787698745727539
sg34
g2854
sg36
(lp3012
(lp3013
I6
aI3
aI2
aa(lp3014
I1
aI-4
aI2
aasg40
(lp3015
(lp3016
I0
aI7
aI-9
aI8
aI00
aI00
aI00
aa(lp3017
I-4
aI5
aI8
aI9
aI00
aI01
aI01
aasa(dp3018
g24
I2
sg25
I8
sg26
I353
sg27
I2
sg28
I2
sg29
I2
sg30
F7.510236024856567
sg31
F2.331664800643921
sg32
(lp3019
I8
aI8
aI10
aI8
aI7
aI10
asg607
F0.38224101066589355
sg34
g2854
sg36
(lp3020
(lp3021
I-1
aI2
aI2
aa(lp3022
I-9
aI0
aI2
aasg40
(lp3023
(lp3024
I3
aI-9
aI-9
aI3
aI00
aI00
aI01
aa(lp3025
I5
aI-6
aI-2
aI-6
aI01
aI01
aI00
aasa(dp3026
g24
I2
sg25
I8
sg26
I169
sg27
I2
sg28
I2
sg29
I2
sg30
F3.617436170578003
sg31
F0.40898680686950684
sg32
(lp3027
I0
aI9
aI2
aI0
aI0
aI9
asg607
F0.3953278064727783
sg34
g2854
sg36
(lp3028
(lp3029
I4
aI3
aI2
aa(lp3030
I7
aI4
aI2
aasg40
(lp3031
(lp3032
I-10
aI-10
aI-9
aI-7
aI01
aI00
aI00
aa(lp3033
I7
aI-7
aI-2
aI-7
aI00
aI00
aI00
aasa(dp3034
g24
I2
sg25
I8
sg26
I231
sg27
I2
sg28
I2
sg29
I2
sg30
F4.953041076660156
sg31
F2.926147937774658
sg32
(lp3035
I5
aI7
aI0
aI9
aI5
aI4
asg607
F0.41128110885620117
sg34
g2854
sg36
(lp3036
(lp3037
I-10
aI-9
aI2
aa(lp3038
I-2
aI-4
aI2
aasg40
(lp3039
(lp3040
I1
aI-6
aI8
aI-2
aI00
aI01
aI00
aa(lp3041
I8
aI-1
aI-5
aI3
aI01
aI00
aI01
aasa(dp3042
g24
I2
sg25
I7
sg26
I208
sg27
I2
sg28
I1
sg29
I2
sg30
F4.466833114624023
sg31
F1.3903968334197998
sg32
(lp3043
I7
aI8
aI4
aI4
aI9
aI10
asg607
F0.8465142250061035
sg34
g2854
sg36
(lp3044
(lp3045
I3
aI-3
aI2
aa(lp3046
I-7
aI-2
aI2
aasg40
(lp3047
(lp3048
I-7
aI4
aI-7
aI4
aI00
aI01
aI00
aa(lp3049
I10
aI-5
aI-7
aI4
aI00
aI01
aI01
aasa(dp3050
g24
I2
sg25
I8
sg26
I248
sg27
I2
sg28
I2
sg29
I2
sg30
F5.323027849197388
sg31
F2.006193161010742
sg32
(lp3051
I10
aI0
aI4
aI8
aI0
aI4
asg607
F0.42690181732177734
sg34
g2854
sg36
(lp3052
(lp3053
I10
aI9
aI2
aa(lp3054
I5
aI-8
aI2
aasg40
(lp3055
(lp3056
I1
aI-10
aI-6
aI2
aI00
aI00
aI01
aa(lp3057
I-5
aI-1
aI8
aI9
aI01
aI00
aI00
aasa(dp3058
g24
I2
sg25
I8
sg26
I311
sg27
I2
sg28
I2
sg29
I2
sg30
F6.552747964859009
sg31
F1.2738029956817627
sg32
(lp3059
I0
aI9
aI5
aI4
aI8
aI10
asg607
F0.43410515785217285
sg34
g2854
sg36
(lp3060
(lp3061
I6
aI0
aI2
aa(lp3062
I4
aI5
aI2
aasg40
(lp3063
(lp3064
I6
aI1
aI-3
aI4
aI00
aI00
aI00
aa(lp3065
I8
aI-9
aI-2
aI-9
aI01
aI00
aI00
aasa(dp3066
g24
I2
sg25
I8
sg26
I233
sg27
I2
sg28
I2
sg29
I2
sg30
F4.892729997634888
sg31
F4.924861907958984
sg32
(lp3067
I2
aI1
aI10
aI0
aI3
aI5
asg607
F0.4709439277648926
sg34
g2854
sg36
(lp3068
(lp3069
I-8
aI-8
aI2
aa(lp3070
I9
aI-1
aI2
aasg40
(lp3071
(lp3072
I5
aI-2
aI-6
aI7
aI01
aI00
aI00
aa(lp3073
I-10
aI5
aI-3
aI10
aI01
aI00
aI01
aasa(dp3074
g24
I2
sg25
I8
sg26
I322
sg27
I2
sg28
I2
sg29
I2
sg30
F6.835230112075806
sg31
F0.9029688835144043
sg32
(lp3075
I6
aI1
aI0
aI7
aI9
aI9
asg607
F0.4494898319244385
sg34
g2854
sg36
(lp3076
(lp3077
I1
aI-10
aI2
aa(lp3078
I1
aI5
aI2
aasg40
(lp3079
(lp3080
I7
aI-6
aI4
aI10
aI00
aI00
aI01
aa(lp3081
I4
aI-8
aI5
aI7
aI01
aI00
aI00
aasa(dp3082
g24
I2
sg25
I8
sg26
I327
sg27
I2
sg28
I2
sg29
I2
sg30
F6.902059078216553
sg31
F3.478816032409668
sg32
(lp3083
I3
aI9
aI8
aI10
aI6
aI0
asg607
F0.9054210186004639
sg34
g2854
sg36
(lp3084
(lp3085
I1
aI2
aI2
aa(lp3086
I-2
aI-1
aI2
aasg40
(lp3087
(lp3088
I7
aI-2
aI10
aI9
aI00
aI00
aI01
aa(lp3089
I3
aI2
aI6
aI3
aI01
aI00
aI00
aasa(dp3090
g24
I2
sg25
I8
sg26
I254
sg27
I2
sg28
I2
sg29
I2
sg30
F5.454495191574097
sg31
F7.966490983963013
sg32
(lp3091
I6
aI2
aI8
aI8
aI8
aI0
asg607
F0.9353759288787842
sg34
g2854
sg36
(lp3092
(lp3093
I4
aI-3
aI2
aa(lp3094
I1
aI-1
aI2
aasg40
(lp3095
(lp3096
I10
aI-4
aI-7
aI8
aI01
aI01
aI01
aa(lp3097
I10
aI2
aI9
aI9
aI00
aI01
aI01
aasa(dp3098
g24
I2
sg25
I8
sg26
I316
sg27
I2
sg28
I2
sg29
I2
sg30
F6.821063995361328
sg31
F0.9000289440155029
sg32
(lp3099
I9
aI5
aI10
aI9
aI7
aI10
asg607
F0.4804210662841797
sg34
g2854
sg36
(lp3100
(lp3101
I5
aI0
aI2
aa(lp3102
I-2
aI-10
aI2
aasg40
(lp3103
(lp3104
I8
aI-4
aI-9
aI-4
aI00
aI01
aI00
aa(lp3105
I-7
aI-1
aI1
aI1
aI00
aI01
aI00
aasa(dp3106
g24
I2
sg25
I7
sg26
I181
sg27
I2
sg28
I2
sg29
I1
sg30
F3.8526148796081543
sg31
F1.0443763732910156
sg32
(lp3107
I7
aI10
aI6
aI9
aI10
aI9
asg607
F1.498741626739502
sg34
g2854
sg36
(lp3108
(lp3109
I7
aI-5
aI2
aa(lp3110
I-3
aI8
aI2
aasg40
(lp3111
(lp3112
I-9
aI9
aI-10
aI10
aI01
aI01
aI00
aa(lp3113
I10
aI-10
aI3
aI-3
aI01
aI00
aI01
aasa(dp3114
g24
I2
sg25
I8
sg26
I230
sg27
I2
sg28
I2
sg29
I2
sg30
F4.925310134887695
sg31
F4.486652851104736
sg32
(lp3115
I6
aI4
aI0
aI6
aI2
aI10
asg607
F0.49387407302856445
sg34
g2854
sg36
(lp3116
(lp3117
I9
aI9
aI2
aa(lp3118
I2
aI-5
aI2
aasg40
(lp3119
(lp3120
I5
aI2
aI9
aI8
aI01
aI00
aI01
aa(lp3121
I-1
aI-10
aI2
aI-9
aI01
aI00
aI00
aasa(dp3122
g24
I2
sg25
I8
sg26
I274
sg27
I2
sg28
I2
sg29
I2
sg30
F5.912245988845825
sg31
F4.339890956878662
sg32
(lp3123
I1
aI2
aI6
aI9
aI5
aI8
asg607
F2.025498151779175
sg34
g2854
sg36
(lp3124
(lp3125
I5
aI4
aI2
aa(lp3126
I-1
aI-3
aI2
aasg40
(lp3127
(lp3128
I-1
aI0
aI-6
aI2
aI00
aI00
aI01
aa(lp3129
I10
aI-10
aI9
aI-3
aI01
aI01
aI01
aasa(dp3130
g24
I2
sg25
I7
sg26
I197
sg27
I2
sg28
I1
sg29
I2
sg30
F4.262209892272949
sg31
F2.916516065597534
sg32
(lp3131
I1
aI10
aI2
aI5
aI2
aI8
asg607
F1.0463120937347412
sg34
g2854
sg36
(lp3132
(lp3133
I3
aI-8
aI2
aa(lp3134
I4
aI-4
aI2
aasg40
(lp3135
(lp3136
I-2
aI-10
aI10
aI6
aI00
aI00
aI01
aa(lp3137
I-1
aI4
aI-3
aI6
aI00
aI01
aI00
aasa(dp3138
g24
I2
sg25
I8
sg26
I215
sg27
I2
sg28
I2
sg29
I2
sg30
F4.562097072601318
sg31
F2.661574125289917
sg32
(lp3139
I5
aI5
aI8
aI6
aI9
aI0
asg607
F0.5129778385162354
sg34
g2854
sg36
(lp3140
(lp3141
I2
aI-3
aI2
aa(lp3142
I4
aI8
aI2
aasg40
(lp3143
(lp3144
I8
aI3
aI7
aI9
aI00
aI01
aI01
aa(lp3145
I10
aI6
aI2
aI7
aI01
aI01
aI01
aasa(dp3146
g24
I2
sg25
I8
sg26
I247
sg27
I2
sg28
I2
sg29
I2
sg30
F5.342264890670776
sg31
F1.7752711772918701
sg32
(lp3147
I2
aI1
aI7
aI5
aI10
aI10
asg607
F1.0392959117889404
sg34
g2854
sg36
(lp3148
(lp3149
I-10
aI-1
aI2
aa(lp3150
I-7
aI7
aI2
aasg40
(lp3151
(lp3152
I2
aI-8
aI-2
aI5
aI00
aI00
aI00
aa(lp3153
I-4
aI1
aI0
aI5
aI00
aI00
aI00
aasa(dp3154
g24
I2
sg25
I8
sg26
I330
sg27
I2
sg28
I2
sg29
I2
sg30
F7.076030969619751
sg31
F0.9763460159301758
sg32
(lp3155
I1
aI3
aI5
aI8
aI10
aI4
asg607
F0.5262558460235596
sg34
g2854
sg36
(lp3156
(lp3157
I10
aI4
aI2
aa(lp3158
I-10
aI10
aI2
aasg40
(lp3159
(lp3160
I2
aI-3
aI-8
aI8
aI01
aI00
aI00
aa(lp3161
I-1
aI-9
aI-3
aI6
aI01
aI00
aI00
aasa(dp3162
g24
I2
sg25
I8
sg26
I175
sg27
I2
sg28
I2
sg29
I2
sg30
F3.7200889587402344
sg31
F2.243720293045044
sg32
(lp3163
I0
aI0
aI10
aI8
aI9
aI0
asg607
F1.6510179042816162
sg34
g2854
sg36
(lp3164
(lp3165
I4
aI-6
aI2
aa(lp3166
I1
aI-9
aI2
aasg40
(lp3167
(lp3168
I-1
aI-10
aI-5
aI-10
aI01
aI01
aI00
aa(lp3169
I6
aI8
aI1
aI9
aI00
aI00
aI01
aasa(dp3170
g24
I2
sg25
I8
sg26
I270
sg27
I2
sg28
I2
sg29
I2
sg30
F5.805080890655518
sg31
F1.2805161476135254
sg32
(lp3171
I4
aI9
aI9
aI3
aI7
aI10
asg607
F0.5395388603210449
sg34
g2854
sg36
(lp3172
(lp3173
I8
aI-3
aI2
aa(lp3174
I9
aI-2
aI2
aasg40
(lp3175
(lp3176
I5
aI6
aI8
aI9
aI00
aI01
aI00
aa(lp3177
I9
aI0
aI-10
aI1
aI01
aI00
aI00
aasa(dp3178
g24
I2
sg25
I8
sg26
I243
sg27
I2
sg28
I2
sg29
I2
sg30
F5.169387102127075
sg31
F1.6396539211273193
sg32
(lp3179
I1
aI4
aI5
aI5
aI10
aI5
asg607
F0.5535888671875
sg34
g2854
sg36
(lp3180
(lp3181
I4
aI9
aI2
aa(lp3182
I-10
aI2
aI2
aasg40
(lp3183
(lp3184
I-3
aI2
aI-8
aI10
aI00
aI00
aI00
aa(lp3185
I5
aI-4
aI0
aI6
aI00
aI01
aI01
aasa(dp3186
g24
I2
sg25
I8
sg26
I173
sg27
I2
sg28
I2
sg29
I2
sg30
F3.7122249603271484
sg31
F1.6252038478851318
sg32
(lp3187
I1
aI9
aI6
aI1
aI10
aI3
asg607
F1.1182019710540771
sg34
g2854
sg36
(lp3188
(lp3189
I9
aI3
aI2
aa(lp3190
I7
aI-10
aI2
aasg40
(lp3191
(lp3192
I2
aI7
aI3
aI10
aI00
aI01
aI00
aa(lp3193
I3
aI-9
aI10
aI-8
aI01
aI01
aI00
aasa(dp3194
g24
I2
sg25
I8
sg26
I336
sg27
I2
sg28
I2
sg29
I2
sg30
F7.085676908493042
sg31
F1.5707249641418457
sg32
(lp3195
I4
aI9
aI5
aI2
aI7
aI10
asg607
F0.5692470073699951
sg34
g2854
sg36
(lp3196
(lp3197
I7
aI-4
aI2
aa(lp3198
I1
aI-6
aI2
aasg40
(lp3199
(lp3200
I1
aI-9
aI9
aI2
aI00
aI01
aI01
aa(lp3201
I-3
aI-5
aI10
aI1
aI00
aI00
aI00
aasa(dp3202
g24
I2
sg25
I7
sg26
I175
sg27
I2
sg28
I2
sg29
I1
sg30
F3.7854819297790527
sg31
F3.749145984649658
sg32
(lp3203
I2
aI8
aI8
aI2
aI0
aI9
asg607
F1.1398138999938965
sg34
g2854
sg36
(lp3204
(lp3205
I-3
aI-3
aI2
aa(lp3206
I-3
aI-10
aI2
aasg40
(lp3207
(lp3208
I-5
aI0
aI-3
aI7
aI00
aI00
aI00
aa(lp3209
I2
aI2
aI-10
aI6
aI00
aI00
aI01
aasa(dp3210
g24
I2
sg25
I8
sg26
I172
sg27
I2
sg28
I2
sg29
I2
sg30
F3.699812650680542
sg31
F4.199496269226074
sg32
(lp3211
I1
aI7
aI0
aI5
aI1
aI9
asg607
F1.1580760478973389
sg34
g2854
sg36
(lp3212
(lp3213
I2
aI6
aI2
aa(lp3214
I-2
aI-1
aI2
aasg40
(lp3215
(lp3216
I9
aI4
aI1
aI9
aI01
aI01
aI00
aa(lp3217
I-1
aI4
aI1
aI10
aI01
aI01
aI00
aasa(dp3218
g24
I2
sg25
I5
sg26
I131
sg27
I0
sg28
I1
sg29
I2
sg30
F2.8229410648345947
sg31
F0.5967340469360352
sg32
(lp3219
I10
aI7
aI10
aI3
aI1
aI6
asg607
F1.1739201545715332
sg34
g2854
sg36
(lp3220
(lp3221
I-1
aI8
aI2
aa(lp3222
I-3
aI3
aI2
aasg40
(lp3223
sa(dp3224
g24
I2
sg25
I8
sg26
I368
sg27
I2
sg28
I2
sg29
I2
sg30
F7.762609958648682
sg31
F2.2600350379943848
sg32
(lp3225
I9
aI6
aI6
aI5
aI8
aI0
asg607
F0.6439089775085449
sg34
g2854
sg36
(lp3226
(lp3227
I6
aI-9
aI2
aa(lp3228
I-4
aI10
aI2
aasg40
(lp3229
(lp3230
I-7
aI-8
aI-3
aI5
aI00
aI00
aI00
aa(lp3231
I8
aI-7
aI-10
aI10
aI01
aI01
aI00
aasa(dp3232
g24
I2
sg25
I8
sg26
I167
sg27
I2
sg28
I2
sg29
I2
sg30
F3.5747480392456055
sg31
F3.9994280338287354
sg32
(lp3233
I0
aI4
aI7
aI0
aI7
aI5
asg607
F0.6091370582580566
sg34
g2854
sg36
(lp3234
(lp3235
I7
aI0
aI2
aa(lp3236
I-9
aI1
aI2
aasg40
(lp3237
(lp3238
I0
aI-10
aI-8
aI-7
aI00
aI00
aI01
aa(lp3239
I-10
aI-6
aI5
aI0
aI00
aI00
aI01
aasa(dp3240
g24
I2
sg25
I8
sg26
I297
sg27
I2
sg28
I2
sg29
I2
sg30
F6.322613954544067
sg31
F1.4001970291137695
sg32
(lp3241
I8
aI2
aI9
aI5
aI3
aI1
asg607
F0.6168959140777588
sg34
g2854
sg36
(lp3242
(lp3243
I3
aI-9
aI2
aa(lp3244
I-7
aI8
aI2
aasg40
(lp3245
(lp3246
I7
aI-7
aI5
aI1
aI00
aI00
aI00
aa(lp3247
I10
aI2
aI-8
aI5
aI01
aI00
aI00
aasa(dp3248
g24
I2
sg25
I8
sg26
I339
sg27
I2
sg28
I2
sg29
I2
sg30
F7.299738883972168
sg31
F1.8252501487731934
sg32
(lp3249
I8
aI8
aI10
aI6
aI9
aI10
asg607
F0.6593039035797119
sg34
g2854
sg36
(lp3250
(lp3251
I-6
aI8
aI2
aa(lp3252
I1
aI8
aI2
aasg40
(lp3253
(lp3254
I-3
aI-2
aI6
aI2
aI00
aI01
aI01
aa(lp3255
I-9
aI-3
aI2
aI4
aI01
aI00
aI01
aasa(dp3256
g24
I2
sg25
I8
sg26
I278
sg27
I2
sg28
I2
sg29
I2
sg30
F6.005178928375244
sg31
F5.837911128997803
sg32
(lp3257
I2
aI5
aI9
aI7
aI1
aI0
asg607
F1.2209928035736084
sg34
g2854
sg36
(lp3258
(lp3259
I-3
aI10
aI2
aa(lp3260
I10
aI-9
aI2
aasg40
(lp3261
(lp3262
I3
aI-1
aI5
aI4
aI01
aI00
aI01
aa(lp3263
I7
aI-7
aI-10
aI6
aI00
aI01
aI00
aasa(dp3264
g24
I2
sg25
I8
sg26
I200
sg27
I2
sg28
I2
sg29
I2
sg30
F4.298771142959595
sg31
F2.1465070247650146
sg32
(lp3265
I2
aI2
aI0
aI8
aI5
aI4
asg607
F0.6220929622650146
sg34
g2854
sg36
(lp3266
(lp3267
I9
aI-1
aI2
aa(lp3268
I-2
aI6
aI2
aasg40
(lp3269
(lp3270
I-1
aI-1
aI-2
aI-1
aI00
aI00
aI00
aa(lp3271
I0
aI-1
aI0
aI10
aI00
aI00
aI00
aasa(dp3272
g24
I2
sg25
I7
sg26
I187
sg27
I1
sg28
I2
sg29
I2
sg30
F4.059499979019165
sg31
F20.13376522064209
sg32
(lp3273
I5
aI0
aI6
aI2
aI8
aI0
asg607
F12.833835363388062
sg34
g2854
sg36
(lp3274
(lp3275
I0
aI10
aI2
aa(lp3276
I-8
aI6
aI2
aasg40
(lp3277
(lp3278
I-5
aI-4
aI-10
aI9
aI00
aI01
aI01
aasa(dp3279
g24
I2
sg25
I8
sg26
I136
sg27
I2
sg28
I2
sg29
I2
sg30
F2.9055066108703613
sg31
F17.093821048736572
sg32
(lp3280
I10
aI0
aI0
aI9
aI6
aI5
asg607
F4.556199789047241
sg34
g2854
sg36
(lp3281
(lp3282
I-1
aI-2
aI2
aa(lp3283
I-6
aI-10
aI2
aasg40
(lp3284
(lp3285
I-2
aI-5
aI-3
aI0
aI01
aI01
aI01
aa(lp3286
I-5
aI-7
aI-8
aI-7
aI01
aI00
aI00
aasa(dp3287
g24
I2
sg25
I8
sg26
I217
sg27
I2
sg28
I2
sg29
I2
sg30
F4.64008903503418
sg31
F4.461728096008301
sg32
(lp3288
I6
aI6
aI10
aI2
aI1
aI0
asg607
F0.6462790966033936
sg34
g2854
sg36
(lp3289
(lp3290
I-4
aI8
aI2
aa(lp3291
I7
aI0
aI2
aasg40
(lp3292
(lp3293
I-9
aI1
aI-5
aI7
aI01
aI00
aI00
aa(lp3294
I-7
aI-1
aI-9
aI0
aI01
aI00
aI00
aasa(dp3295
g24
I2
sg25
I6
sg26
I160
sg27
I0
sg28
I2
sg29
I2
sg30
F3.450227975845337
sg31
F0.36130690574645996
sg32
(lp3296
I0
aI1
aI8
aI0
aI8
aI10
asg607
F0.6507320404052734
sg34
g2854
sg36
(lp3297
(lp3298
I5
aI8
aI2
aa(lp3299
I-4
aI8
aI2
aasg40
(lp3300
sa(dp3301
g24
I2
sg25
I8
sg26
I171
sg27
I2
sg28
I2
sg29
I2
sg30
F3.660874128341675
sg31
F6.66817307472229
sg32
(lp3302
I1
aI5
aI0
aI1
aI5
aI3
asg607
F0.657379150390625
sg34
g2854
sg36
(lp3303
(lp3304
I1
aI10
aI2
aa(lp3305
I-1
aI-8
aI2
aasg40
(lp3306
(lp3307
I0
aI-5
aI0
aI5
aI01
aI01
aI00
aa(lp3308
I-2
aI-5
aI4
aI3
aI00
aI00
aI01
aasa(dp3309
g24
I2
sg25
I8
sg26
I222
sg27
I2
sg28
I2
sg29
I2
sg30
F4.682884931564331
sg31
F1.2676680088043213
sg32
(lp3310
I1
aI9
aI10
aI3
aI7
aI2
asg607
F0.6501100063323975
sg34
g2854
sg36
(lp3311
(lp3312
I-3
aI-5
aI2
aa(lp3313
I4
aI-5
aI2
aasg40
(lp3314
(lp3315
I7
aI-7
aI-1
aI9
aI00
aI01
aI00
aa(lp3316
I2
aI-2
aI-2
aI4
aI01
aI00
aI01
aasa(dp3317
g24
I2
sg25
I8
sg26
I258
sg27
I2
sg28
I2
sg29
I2
sg30
F5.452273845672607
sg31
F2.0346879959106445
sg32
(lp3318
I3
aI5
aI0
aI7
aI6
aI2
asg607
F0.6561360359191895
sg34
g2854
sg36
(lp3319
(lp3320
I5
aI6
aI2
aa(lp3321
I3
aI-4
aI2
aasg40
(lp3322
(lp3323
I-4
aI-5
aI5
aI10
aI00
aI01
aI01
aa(lp3324
I-1
aI-4
aI-2
aI8
aI00
aI00
aI00
aasa(dp3325
g24
I2
sg25
I8
sg26
I241
sg27
I2
sg28
I2
sg29
I2
sg30
F5.111559867858887
sg31
F2.4359230995178223
sg32
(lp3326
I0
aI5
aI4
aI5
aI7
aI0
asg607
F0.7062218189239502
sg34
g2854
sg36
(lp3327
(lp3328
I-5
aI1
aI2
aa(lp3329
I-7
aI-7
aI2
aasg40
(lp3330
(lp3331
I7
aI-8
aI-3
aI4
aI01
aI01
aI01
aa(lp3332
I2
aI-2
aI10
aI5
aI00
aI00
aI01
aasa(dp3333
g24
I2
sg25
I8
sg26
I214
sg27
I2
sg28
I2
sg29
I2
sg30
F4.705574035644531
sg31
F2.5111069679260254
sg32
(lp3334
I10
aI9
aI3
aI4
aI4
aI1
asg607
F0.6637070178985596
sg34
g2854
sg36
(lp3335
(lp3336
I-7
aI-1
aI2
aa(lp3337
I4
aI7
aI2
aasg40
(lp3338
(lp3339
I10
aI4
aI1
aI6
aI01
aI00
aI00
aa(lp3340
I1
aI-2
aI-2
aI0
aI01
aI00
aI01
aasa(dp3341
g24
I2
sg25
I8
sg26
I177
sg27
I2
sg28
I2
sg29
I2
sg30
F3.7748918533325195
sg31
F2.00899600982666
sg32
(lp3342
I9
aI1
aI0
aI7
aI1
aI8
asg607
F0.673271894454956
sg34
g2854
sg36
(lp3343
(lp3344
I-6
aI-7
aI2
aa(lp3345
I-7
aI-10
aI2
aasg40
(lp3346
(lp3347
I4
aI-5
aI-10
aI-1
aI00
aI00
aI01
aa(lp3348
I-3
aI-2
aI0
aI8
aI01
aI00
aI00
aasa(dp3349
g24
I2
sg25
I8
sg26
I299
sg27
I2
sg28
I2
sg29
I2
sg30
F6.306381940841675
sg31
F4.900979042053223
sg32
(lp3350
I7
aI10
aI0
aI3
aI8
aI3
asg607
F1.3601651191711426
sg34
g2854
sg36
(lp3351
(lp3352
I-5
aI-7
aI2
aa(lp3353
I1
aI-4
aI2
aasg40
(lp3354
(lp3355
I1
aI-10
aI-6
aI8
aI00
aI00
aI00
aa(lp3356
I4
aI0
aI-5
aI1
aI00
aI01
aI01
aasa(dp3357
g24
I2
sg25
I7
sg26
I153
sg27
I1
sg28
I2
sg29
I2
sg30
F3.2599048614501953
sg31
F0.7734062671661377
sg32
(lp3358
I0
aI9
aI6
aI0
aI7
aI8
asg607
F1.4083690643310547
sg34
g2854
sg36
(lp3359
(lp3360
I8
aI4
aI2
aa(lp3361
I-5
aI-7
aI2
aasg40
(lp3362
(lp3363
I10
aI1
aI0
aI1
aI00
aI00
aI01
aasa(dp3364
g24
I2
sg25
I8
sg26
I294
sg27
I2
sg28
I2
sg29
I2
sg30
F6.208623886108398
sg31
F3.3951590061187744
sg32
(lp3365
I10
aI5
aI3
aI6
aI5
aI7
asg607
F0.6963019371032715
sg34
g2854
sg36
(lp3366
(lp3367
I7
aI6
aI2
aa(lp3368
I-4
aI-10
aI2
aasg40
(lp3369
(lp3370
I-10
aI-9
aI-9
aI-5
aI00
aI00
aI01
aa(lp3371
I6
aI-8
aI-6
aI-1
aI00
aI01
aI01
aasa(dp3372
g24
I2
sg25
I7
sg26
I175
sg27
I2
sg28
I2
sg29
I1
sg30
F3.751986026763916
sg31
F0.7852411270141602
sg32
(lp3373
I9
aI3
aI2
aI1
aI6
aI10
asg607
F1.4471189975738525
sg34
g2854
sg36
(lp3374
(lp3375
I9
aI3
aI2
aa(lp3376
I4
aI9
aI2
aasg40
(lp3377
(lp3378
I10
aI2
aI9
aI3
aI00
aI00
aI01
aa(lp3379
I-8
aI1
aI-3
aI1
aI01
aI00
aI00
aasa(dp3380
g24
I2
sg25
I8
sg26
I202
sg27
I2
sg28
I2
sg29
I2
sg30
F4.349014043807983
sg31
F2.1476709842681885
sg32
(lp3381
I6
aI0
aI3
aI1
aI0
aI9
asg607
F0.7000279426574707
sg34
g2854
sg36
(lp3382
(lp3383
I8
aI-5
aI2
aa(lp3384
I7
aI-6
aI2
aasg40
(lp3385
(lp3386
I6
aI-10
aI-1
aI4
aI00
aI00
aI01
aa(lp3387
I10
aI-2
aI0
aI1
aI00
aI00
aI01
aasa(dp3388
g24
I2
sg25
I6
sg26
I173
sg27
I1
sg28
I1
sg29
I2
sg30
F3.646149158477783
sg31
F1.7351229190826416
sg32
(lp3389
I9
aI4
aI0
aI7
aI6
aI10
asg607
F1.4051709175109863
sg34
g2854
sg36
(lp3390
(lp3391
I7
aI-8
aI2
aa(lp3392
I4
aI-2
aI2
aasg40
(lp3393
(lp3394
I-2
aI-6
aI5
aI7
aI00
aI00
aI01
aasa(dp3395
g24
I2
sg25
I8
sg26
I186
sg27
I2
sg28
I2
sg29
I2
sg30
F3.986954927444458
sg31
F1.036938190460205
sg32
(lp3396
I5
aI0
aI10
aI5
aI0
aI4
asg607
F0.70613694190979
sg34
g2854
sg36
(lp3397
(lp3398
I-8
aI9
aI2
aa(lp3399
I0
aI-3
aI2
aasg40
(lp3400
(lp3401
I-7
aI0
aI9
aI6
aI01
aI00
aI01
aa(lp3402
I-10
aI7
aI-8
aI9
aI00
aI00
aI01
aasaa(lp3403
(dp3404
g3
I2
sg4
I8
sg5
I145
sg6
(lp3405
(lp3406
I-10
aI-9
aI-4
aI6
aI01
aI01
aI00
aa(lp3407
I4
aI-7
aI6
aI-1
aI01
aI00
aI00
aasg10
I2
sS'nn_time'
p3408
F2.74896502494812
sg11
I2
sg12
I2
sg13
F3.1642112731933594
sS'orig_subset_size'
p3409
I140
sg15
(lp3410
I0
aI9
aI9
aI3
aI1
aI10
asS'error'
p3411
F20.0
sg600
F0.9526968002319336
sg14
F3.397120714187622
sg17
(lp3412
(lp3413
I8
aI-10
aI2
aa(lp3414
I-7
aI-9
aI2
aasg21
S'nn+cegis'
p3415
sa(dp3416
g24
I2
sg25
I8
sg26
I120
sg27
I2
sS'error'
p3417
F0.0
sg28
I2
sS'orig_subset_size'
p3418
I120
sg29
I2
sg30
F2.6872239112854004
sg31
F1.7632670402526855
sg32
(lp3419
I0
aI0
aI10
aI10
aI0
aI5
asS'nn_time'
p3420
F2.472921848297119
sg607
F0.1629350185394287
sg34
S'nn+cegis'
p3421
sg36
(lp3422
(lp3423
I2
aI-5
aI2
aa(lp3424
I-7
aI-8
aI2
aasg40
(lp3425
(lp3426
I-1
aI9
aI10
aI10
aI00
aI01
aI00
aa(lp3427
I-6
aI6
aI4
aI10
aI01
aI00
aI01
aasa(dp3428
g24
I2
sg25
I8
sg26
I142
sg27
I2
sg3417
F11.0
sg28
I2
sg3418
I140
sg29
I2
sg30
F3.199833631515503
sg31
F1.8132050037384033
sg32
(lp3429
I6
aI4
aI10
aI10
aI4
aI7
asg3420
F2.0031609535217285
sg607
F0.6204228401184082
sg34
g3421
sg36
(lp3430
(lp3431
I-5
aI-9
aI2
aa(lp3432
I3
aI-2
aI2
aasg40
(lp3433
(lp3434
I-6
aI-6
aI-7
aI6
aI00
aI01
aI01
aa(lp3435
I-2
aI7
aI-9
aI10
aI01
aI01
aI00
aasa(dp3436
g24
I2
sg25
I8
sg26
I100
sg27
I2
sg3417
F0.0
sg28
I2
sg3418
I100
sg29
I2
sg30
F2.2208750247955322
sg31
F0.7836031913757324
sg32
(lp3437
I10
aI6
aI8
aI0
aI0
aI0
asg3420
F1.4569358825683594
sg607
F0.18261289596557617
sg34
g3421
sg36
(lp3438
(lp3439
I8
aI8
aI2
aa(lp3440
I-8
aI0
aI2
aasg40
(lp3441
(lp3442
I6
aI9
aI-10
aI9
aI00
aI01
aI00
aa(lp3443
I10
aI6
aI7
aI6
aI00
aI00
aI00
aasa(dp3444
g24
I2
sg25
I8
sg26
I162
sg27
I2
sg3417
F3.0
sg28
I2
sg3418
I160
sg29
I2
sg30
F3.6795527935028076
sg31
F0.9301092624664307
sg32
(lp3445
I8
aI9
aI10
aI3
aI6
aI6
asg3420
F2.2744860649108887
sg607
F0.5811071395874023
sg34
g3421
sg36
(lp3446
(lp3447
I7
aI-6
aI2
aa(lp3448
I-4
aI-6
aI2
aasg40
(lp3449
(lp3450
I6
aI-10
aI5
aI-10
aI01
aI01
aI00
aa(lp3451
I8
aI9
aI1
aI10
aI00
aI00
aI00
aasa(dp3452
g24
I2
sg25
I8
sg26
I140
sg27
I2
sg3417
F1.0
sg28
I2
sg3418
I140
sg29
I2
sg30
F3.115605115890503
sg31
F1.2902820110321045
sg32
(lp3453
I2
aI9
aI7
aI0
aI8
aI10
asg3420
F2.004589796066284
sg607
F0.238084077835083
sg34
g3421
sg36
(lp3454
(lp3455
I4
aI2
aI2
aa(lp3456
I-2
aI-7
aI2
aasg40
(lp3457
(lp3458
I10
aI-8
aI2
aI-4
aI00
aI01
aI01
aa(lp3459
I7
aI-4
aI6
aI2
aI01
aI00
aI00
aasa(dp3460
g24
I2
sg25
I8
sg26
I162
sg27
I2
sg3417
F19.0
sg28
I2
sg3418
I160
sg29
I2
sg30
F3.599459171295166
sg31
F0.84415602684021
sg32
(lp3461
I1
aI7
aI7
aI5
aI9
aI10
asg3420
F2.311724901199341
sg607
F0.672706127166748
sg34
g3421
sg36
(lp3462
(lp3463
I-3
aI-4
aI2
aa(lp3464
I10
aI-8
aI2
aasg40
(lp3465
(lp3466
I3
aI-6
aI4
aI1
aI00
aI01
aI00
aa(lp3467
I-3
aI4
aI-4
aI9
aI01
aI01
aI01
aasa(dp3468
g24
I2
sg25
I8
sg26
I120
sg27
I2
sg3417
F0.0
sg28
I2
sg3418
I120
sg29
I2
sg30
F2.529711961746216
sg31
F4.2159130573272705
sg32
(lp3469
I2
aI7
aI2
aI3
aI8
aI4
asg3420
F1.7167439460754395
sg607
F0.23232698440551758
sg34
g3421
sg36
(lp3470
(lp3471
I3
aI-10
aI2
aa(lp3472
I5
aI5
aI2
aasg40
(lp3473
(lp3474
I-3
aI-1
aI3
aI4
aI00
aI00
aI00
aa(lp3475
I-7
aI-5
aI4
aI1
aI00
aI01
aI00
aasa(dp3476
g24
I2
sg25
I8
sg26
I122
sg27
I2
sg3417
F0.0
sg28
I2
sg3418
I120
sg29
I2
sg30
F2.6396920680999756
sg31
F2.393890857696533
sg32
(lp3477
I4
aI10
aI1
aI5
aI0
aI2
asg3420
F1.7015409469604492
sg607
F0.745305061340332
sg34
g3421
sg36
(lp3478
(lp3479
I0
aI3
aI2
aa(lp3480
I-2
aI-1
aI2
aasg40
(lp3481
(lp3482
I-10
aI-2
aI5
aI-1
aI00
aI01
aI00
aa(lp3483
I2
aI1
aI9
aI6
aI00
aI01
aI01
aasa(dp3484
g24
I2
sg25
I7
sg26
I102
sg27
I2
sg3417
F32.0
sg28
I2
sg3418
I100
sg29
I1
sg30
F2.1959524154663086
sg31
F1.4639458656311035
sg32
(lp3485
I6
aI7
aI6
aI8
aI7
aI3
asg3420
F1.414438009262085
sg607
F0.7742483615875244
sg34
g3421
sg36
(lp3486
(lp3487
I4
aI-10
aI2
aa(lp3488
I3
aI7
aI2
aasg40
(lp3489
(lp3490
I-9
aI-10
aI-2
aI-1
aI00
aI00
aI01
aa(lp3491
I1
aI-5
aI-10
aI6
aI01
aI00
aI00
aasa(dp3492
g24
I2
sg25
I7
sg26
I124
sg27
I2
sg3417
F10.0
sg28
I2
sg3418
I120
sg29
I1
sg30
F2.6513357162475586
sg31
F2.9131696224212646
sg32
(lp3493
I5
aI0
aI10
aI7
aI8
aI0
asg3420
F1.6856861114501953
sg607
F1.427081823348999
sg34
g3421
sg36
(lp3494
(lp3495
I-10
aI0
aI2
aa(lp3496
I-2
aI9
aI2
aasg40
(lp3497
(lp3498
I4
aI-5
aI-4
aI10
aI01
aI00
aI01
aa(lp3499
I-7
aI-2
aI7
aI3
aI00
aI00
aI00
aasa(dp3500
g24
I2
sg25
I8
sg26
I141
sg27
I2
sg3417
F52.0
sg28
I2
sg3418
I140
sg29
I2
sg30
F2.999866008758545
sg31
F4.4381420612335205
sg32
(lp3501
I2
aI9
aI0
aI7
aI5
aI5
asg3420
F1.9864578247070312
sg607
F0.5456387996673584
sg34
g3421
sg36
(lp3502
(lp3503
I5
aI4
aI2
aa(lp3504
I6
aI-2
aI2
aasg40
(lp3505
(lp3506
I2
aI-7
aI-1
aI3
aI01
aI00
aI01
aa(lp3507
I7
aI-10
aI-1
aI1
aI00
aI01
aI01
aasa(dp3508
g24
I2
sg25
I6
sg26
I60
sg27
I0
sg3417
F0.0
sg28
I2
sg3418
I60
sg29
I2
sg30
F1.25838303565979
sg31
F0.15229201316833496
sg32
(lp3509
I0
aI6
aI10
aI0
aI6
aI3
asg3420
F0.8539090156555176
sg607
F0.28006505966186523
sg34
g3421
sg36
(lp3510
(lp3511
I0
aI0
aI2
aa(lp3512
I-6
aI-1
aI2
aasg40
(lp3513
sa(dp3514
g24
I2
sg25
I8
sg26
I141
sg27
I2
sg3417
F98.0
sg28
I2
sg3418
I120
sg29
I2
sg30
F3.1128056049346924
sg31
F0.9243028163909912
sg32
(lp3515
I8
aI0
aI5
aI10
aI0
aI5
asg3420
F1.7319021224975586
sg607
F6.560871601104736
sg34
g3421
sg36
(lp3516
(lp3517
I10
aI8
aI2
aa(lp3518
I-3
aI-2
aI2
aasg40
(lp3519
(lp3520
I8
aI-3
aI-9
aI10
aI00
aI00
aI00
aa(lp3521
I-10
aI-10
aI-10
aI-10
aI01
aI01
aI00
aasa(dp3522
g24
I2
sg25
I8
sg26
I66
sg27
I2
sg3417
F69.0
sg28
I2
sg3418
I40
sg29
I2
sg30
F1.4821882247924805
sg31
F18.440580129623413
sg32
(lp3523
I0
aI5
aI10
aI2
aI1
aI0
asg3420
F0.5570061206817627
sg607
F8.285236120223999
sg34
g3421
sg36
(lp3524
(lp3525
I-5
aI-2
aI2
aa(lp3526
I-10
aI3
aI2
aasg40
(lp3527
(lp3528
I6
aI-1
aI2
aI0
aI01
aI00
aI00
aa(lp3529
I5
aI-3
aI6
aI0
aI00
aI01
aI01
aasa(dp3530
g24
I2
sg25
I8
sg26
I123
sg27
I2
sg3417
F27.0
sg28
I2
sg3418
I120
sg29
I2
sg30
F2.696413993835449
sg31
F4.064634799957275
sg32
(lp3531
I9
aI7
aI3
aI2
aI10
aI0
asg3420
F1.6783170700073242
sg607
F1.324650764465332
sg34
g3421
sg36
(lp3532
(lp3533
I-10
aI-6
aI2
aa(lp3534
I4
aI2
aI2
aasg40
(lp3535
(lp3536
I2
aI3
aI5
aI9
aI01
aI01
aI00
aa(lp3537
I-8
aI-10
aI-6
aI-6
aI01
aI01
aI00
aasa(dp3538
g24
I2
sg25
I8
sg26
I160
sg27
I2
sg3417
F0.0
sg28
I2
sg3418
I160
sg29
I2
sg30
F3.4064559936523438
sg31
F0.975383996963501
sg32
(lp3539
I10
aI9
aI0
aI7
aI8
aI8
asg3420
F2.2417759895324707
sg607
F0.32633399963378906
sg34
g3421
sg36
(lp3540
(lp3541
I8
aI-10
aI2
aa(lp3542
I-8
aI-3
aI2
aasg40
(lp3543
(lp3544
I8
aI-2
aI6
aI-2
aI00
aI00
aI00
aa(lp3545
I9
aI-3
aI9
aI-2
aI00
aI00
aI00
aasa(dp3546
g24
I2
sg25
I8
sg26
I122
sg27
I2
sg3417
F62.0
sg28
I2
sg3418
I120
sg29
I2
sg30
F2.5875680446624756
sg31
F3.2851810455322266
sg32
(lp3547
I6
aI0
aI7
aI10
aI0
aI1
asg3420
F1.6729960441589355
sg607
F1.0445983409881592
sg34
g3421
sg36
(lp3548
(lp3549
I2
aI8
aI2
aa(lp3550
I-5
aI10
aI2
aasg40
(lp3551
(lp3552
I-5
aI0
aI5
aI3
aI01
aI01
aI00
aa(lp3553
I10
aI-2
aI6
aI4
aI01
aI00
aI01
aasa(dp3554
g24
I2
sg25
I7
sg26
I101
sg27
I2
sg3417
F10.0
sg28
I2
sg3418
I100
sg29
I1
sg30
F2.1453542709350586
sg31
F1.3171727657318115
sg32
(lp3555
I7
aI10
aI1
aI10
aI0
aI10
asg3420
F1.4001209735870361
sg607
F0.6962599754333496
sg34
g3421
sg36
(lp3556
(lp3557
I0
aI3
aI2
aa(lp3558
I10
aI-2
aI2
aasg40
(lp3559
(lp3560
I1
aI-7
aI-3
aI3
aI01
aI00
aI00
aa(lp3561
I-7
aI-5
aI-2
aI-1
aI01
aI00
aI00
aasa(dp3562
g24
I2
sg25
I8
sg26
I161
sg27
I2
sg3417
F1.0
sg28
I2
sg3418
I160
sg29
I2
sg30
F3.4034669399261475
sg31
F2.5185420513153076
sg32
(lp3563
I10
aI5
aI10
aI10
aI5
aI6
asg3420
F2.306185007095337
sg607
F0.7430520057678223
sg34
g3421
sg36
(lp3564
(lp3565
I-5
aI6
aI2
aa(lp3566
I-9
aI6
aI2
aasg40
(lp3567
(lp3568
I-5
aI-7
aI-8
aI10
aI00
aI00
aI01
aa(lp3569
I1
aI4
aI-6
aI7
aI01
aI01
aI00
aasa(dp3570
g24
I2
sg25
I8
sg26
I127
sg27
I2
sg3417
F9.0
sg28
I2
sg3418
I120
sg29
I2
sg30
F2.7694644927978516
sg31
F29.172073364257812
sg32
(lp3571
I4
aI1
aI4
aI1
aI7
aI7
asg3420
F1.6803600788116455
sg607
F2.9593417644500732
sg34
g3421
sg36
(lp3572
(lp3573
I8
aI10
aI2
aa(lp3574
I-1
aI5
aI2
aasg40
(lp3575
(lp3576
I-4
aI-5
aI-8
aI6
aI01
aI01
aI00
aa(lp3577
I-2
aI-5
aI-10
aI8
aI01
aI01
aI01
aasa(dp3578
g24
I2
sg25
I8
sg26
I141
sg27
I2
sg3417
F18.0
sg28
I2
sg3418
I140
sg29
I2
sg30
F3.047024965286255
sg31
F2.9561281204223633
sg32
(lp3579
I4
aI0
aI10
aI6
aI4
aI6
asg3420
F1.8827550411224365
sg607
F0.7912750244140625
sg34
g3421
sg36
(lp3580
(lp3581
I6
aI-3
aI2
aa(lp3582
I1
aI-10
aI2
aasg40
(lp3583
(lp3584
I-4
aI-1
aI8
aI3
aI01
aI00
aI01
aa(lp3585
I0
aI1
aI-9
aI2
aI00
aI00
aI00
aasa(dp3586
g24
I2
sg25
I8
sg26
I183
sg27
I2
sg3417
F0.0
sg28
I2
sg3418
I180
sg29
I2
sg30
F3.889361619949341
sg31
F2.529414176940918
sg32
(lp3587
I8
aI8
aI10
aI8
aI7
aI3
asg3420
F2.554075002670288
sg607
F1.6145000457763672
sg34
g3421
sg36
(lp3588
(lp3589
I-1
aI9
aI2
aa(lp3590
I-9
aI7
aI2
aasg40
(lp3591
(lp3592
I3
aI-2
aI-9
aI10
aI00
aI00
aI01
aa(lp3593
I-2
aI1
aI9
aI1
aI01
aI01
aI00
aasa(dp3594
g24
I2
sg25
I7
sg26
I82
sg27
I2
sg3417
F0.0
sg28
I1
sg3418
I80
sg29
I2
sg30
F1.895902395248413
sg31
F0.9633288383483887
sg32
(lp3595
I3
aI9
aI2
aI9
aI0
aI3
asg3420
F1.1131610870361328
sg607
F1.3257300853729248
sg34
g3421
sg36
(lp3596
(lp3597
I4
aI9
aI2
aa(lp3598
I7
aI10
aI2
aasg40
(lp3599
(lp3600
I-3
aI1
aI-3
aI1
aI01
aI01
aI00
aa(lp3601
I-10
aI-5
aI7
aI-1
aI00
aI00
aI00
aasa(dp3602
g24
I2
sg25
I8
sg26
I104
sg27
I2
sg3417
F4.0
sg28
I2
sg3418
I100
sg29
I2
sg30
F2.2405381202697754
sg31
F4.585363149642944
sg32
(lp3603
I1
aI5
aI4
aI0
aI9
aI10
asg3420
F1.4041249752044678
sg607
F2.0645971298217773
sg34
g3421
sg36
(lp3604
(lp3605
I-7
aI-10
aI2
aa(lp3606
I1
aI-5
aI2
aasg40
(lp3607
(lp3608
I-9
aI-3
aI10
aI-3
aI00
aI00
aI00
aa(lp3609
I10
aI-2
aI-3
aI2
aI01
aI01
aI01
aasa(dp3610
g24
I2
sg25
I7
sg26
I101
sg27
I1
sg3417
F21.0
sg28
I2
sg3418
I100
sg29
I2
sg30
F2.186138153076172
sg31
F0.6654698848724365
sg32
(lp3611
I8
aI0
aI6
aI9
aI0
aI6
asg3420
F1.3955190181732178
sg607
F0.8755452632904053
sg34
g3421
sg36
(lp3612
(lp3613
I-9
aI2
aI2
aa(lp3614
I1
aI1
aI2
aasg40
(lp3615
(lp3616
I8
aI-1
aI-9
aI8
aI01
aI00
aI01
aasa(dp3617
g24
I2
sg25
I7
sg26
I142
sg27
I2
sg3417
F2.0
sg28
I2
sg3418
I140
sg29
I1
sg30
F3.086660146713257
sg31
F1.754173994064331
sg32
(lp3618
I10
aI2
aI6
aI8
aI7
aI3
asg3420
F1.9848649501800537
sg607
F1.2796719074249268
sg34
g3421
sg36
(lp3619
(lp3620
I8
aI10
aI2
aa(lp3621
I3
aI-7
aI2
aasg40
(lp3622
(lp3623
I-7
aI0
aI10
aI10
aI01
aI00
aI00
aa(lp3624
I-1
aI-9
aI-8
aI3
aI00
aI00
aI01
aasa(dp3625
g24
I2
sg25
I8
sg26
I160
sg27
I2
sg3417
F0.0
sg28
I2
sg3418
I160
sg29
I2
sg30
F3.3604838848114014
sg31
F1.7150959968566895
sg32
(lp3626
I0
aI9
aI3
aI4
aI8
aI5
asg3420
F2.2239739894866943
sg607
F0.4346740245819092
sg34
g3421
sg36
(lp3627
(lp3628
I6
aI10
aI2
aa(lp3629
I8
aI5
aI2
aasg40
(lp3630
(lp3631
I5
aI6
aI-1
aI9
aI00
aI00
aI00
aa(lp3632
I0
aI-4
aI10
aI-4
aI01
aI00
aI00
aasa(dp3633
g24
I2
sg25
I8
sg26
I105
sg27
I2
sg3417
F5.0
sg28
I2
sg3418
I100
sg29
I2
sg30
F2.2580902576446533
sg31
F11.916768789291382
sg32
(lp3634
I2
aI1
aI9
aI0
aI3
aI7
asg3420
F1.4111309051513672
sg607
F2.7494072914123535
sg34
g3421
sg36
(lp3635
(lp3636
I-7
aI-10
aI2
aa(lp3637
I10
aI-3
aI2
aasg40
(lp3638
(lp3639
I5
aI-4
aI-5
aI5
aI01
aI00
aI00
aa(lp3640
I-9
aI3
aI-2
aI8
aI01
aI00
aI01
aasa(dp3641
g24
I2
sg25
I8
sg26
I160
sg27
I2
sg3417
F2.0
sg28
I2
sg3418
I160
sg29
I2
sg30
F3.360215902328491
sg31
F1.4109768867492676
sg32
(lp3642
I6
aI1
aI10
aI7
aI9
aI9
asg3420
F2.2321970462799072
sg607
F0.44887709617614746
sg34
g3421
sg36
(lp3643
(lp3644
I-9
aI5
aI2
aa(lp3645
I-9
aI-10
aI2
aasg40
(lp3646
(lp3647
I-3
aI-6
aI-6
aI10
aI00
aI00
aI01
aa(lp3648
I-6
aI-8
aI-5
aI7
aI01
aI00
aI00
aasa(dp3649
g24
I2
sg25
I8
sg26
I164
sg27
I2
sg3417
F4.0
sg28
I2
sg3418
I160
sg29
I2
sg30
F3.468390703201294
sg31
F2.3046741485595703
sg32
(lp3650
I3
aI9
aI8
aI10
aI6
aI0
asg3420
F2.236259937286377
sg607
F2.3725876808166504
sg34
g3421
sg36
(lp3651
(lp3652
I1
aI2
aI2
aa(lp3653
I-2
aI-1
aI2
aasg40
(lp3654
(lp3655
I6
aI3
aI4
aI3
aI01
aI00
aI00
aa(lp3656
I7
aI-2
aI10
aI9
aI00
aI00
aI01
aasa(dp3657
g24
I2
sg25
I8
sg26
I140
sg27
I2
sg3417
F0.0
sg28
I2
sg3418
I140
sg29
I2
sg30
F2.984653949737549
sg31
F1.7047779560089111
sg32
(lp3658
I6
aI2
aI8
aI8
aI8
aI6
asg3420
F1.9820690155029297
sg607
F0.46446800231933594
sg34
g3421
sg36
(lp3659
(lp3660
I4
aI-9
aI2
aa(lp3661
I1
aI-7
aI2
aasg40
(lp3662
(lp3663
I10
aI-4
aI9
aI3
aI00
aI01
aI01
aa(lp3664
I10
aI-10
aI-7
aI2
aI01
aI01
aI01
aasa(dp3665
g24
I2
sg25
I8
sg26
I163
sg27
I2
sg3417
F11.0
sg28
I2
sg3418
I160
sg29
I2
sg30
F3.4630870819091797
sg31
F3.045651912689209
sg32
(lp3666
I9
aI5
aI8
aI9
aI7
aI1
asg3420
F2.3016319274902344
sg607
F2.0057337284088135
sg34
g3421
sg36
(lp3667
(lp3668
I0
aI-1
aI2
aa(lp3669
I7
aI9
aI2
aasg40
(lp3670
(lp3671
I-5
aI8
aI3
aI10
aI00
aI01
aI00
aa(lp3672
I10
aI5
aI-7
aI5
aI00
aI01
aI00
aasa(dp3673
g24
I2
sg25
I7
sg26
I84
sg27
I2
sg3417
F117.0
sg28
I2
sg3418
I80
sg29
I1
sg30
F1.8130607604980469
sg31
F0.9787671566009521
sg32
(lp3674
I7
aI6
aI10
aI9
aI10
aI7
asg3420
F1.1579720973968506
sg607
F2.477731227874756
sg34
g3421
sg36
(lp3675
(lp3676
I-7
aI10
aI2
aa(lp3677
I3
aI-3
aI2
aasg40
(lp3678
(lp3679
I6
aI-8
aI6
aI-2
aI01
aI00
aI00
aa(lp3680
I6
aI-1
aI-1
aI-1
aI01
aI00
aI00
aasa(dp3681
g24
I2
sg25
I8
sg26
I122
sg27
I2
sg3417
F4.0
sg28
I2
sg3418
I120
sg29
I2
sg30
F2.6134679317474365
sg31
F2.5579419136047363
sg32
(lp3682
I4
aI6
aI0
aI2
aI6
aI9
asg3420
F1.7139530181884766
sg607
F1.4796700477600098
sg34
g3421
sg36
(lp3683
(lp3684
I2
aI-4
aI2
aa(lp3685
I9
aI10
aI2
aasg40
(lp3686
(lp3687
I6
aI3
aI9
aI7
aI00
aI01
aI01
aa(lp3688
I-1
aI-9
aI2
aI-8
aI01
aI01
aI00
aasa(dp3689
g24
I2
sg25
I8
sg26
I161
sg27
I2
sg3417
F9.0
sg28
I2
sg3418
I160
sg29
I2
sg30
F3.4247841835021973
sg31
F4.365041971206665
sg32
(lp3690
I2
aI1
aI6
aI5
aI9
aI2
asg3420
F2.2297239303588867
sg607
F1.0243699550628662
sg34
g3421
sg36
(lp3691
(lp3692
I5
aI10
aI2
aa(lp3693
I-1
aI3
aI2
aasg40
(lp3694
(lp3695
I-1
aI5
aI-6
aI8
aI00
aI00
aI01
aa(lp3696
I10
aI-4
aI9
aI3
aI01
aI01
aI01
aasa(dp3697
g24
I1
sg25
I7
sg26
I102
sg27
I2
sg3417
F13.0
sg28
I2
sg3418
I100
sg29
I2
sg30
F2.2045578956604004
sg31
F2.3422491550445557
sg32
(lp3698
I10
aI1
aI1
aI2
aI4
aI4
asg3420
F1.4181921482086182
sg607
F1.5127322673797607
sg34
g3421
sg36
(lp3699
(lp3700
I4
aI-4
aI2
aasg40
(lp3701
(lp3702
I-2
aI-10
aI10
aI6
aI00
aI01
aI01
aa(lp3703
I-1
aI4
aI-3
aI6
aI01
aI01
aI00
aasa(dp3704
g24
I2
sg25
I8
sg26
I121
sg27
I2
sg3417
F6.0
sg28
I2
sg3418
I120
sg29
I2
sg30
F2.6250030994415283
sg31
F4.795133829116821
sg32
(lp3705
I5
aI5
aI8
aI6
aI9
aI7
asg3420
F1.6691789627075195
sg607
F1.0925662517547607
sg34
g3421
sg36
(lp3706
(lp3707
I4
aI1
aI2
aa(lp3708
I2
aI-10
aI2
aasg40
(lp3709
(lp3710
I8
aI-4
aI7
aI2
aI00
aI01
aI01
aa(lp3711
I10
aI-1
aI7
aI0
aI01
aI01
aI01
aasa(dp3712
g24
I2
sg25
I8
sg26
I123
sg27
I2
sg3417
F7.0
sg28
I2
sg3418
I120
sg29
I2
sg30
F2.6282217502593994
sg31
F1.8178510665893555
sg32
(lp3713
I1
aI2
aI7
aI10
aI5
aI7
asg3420
F1.6541190147399902
sg607
F2.1669530868530273
sg34
g3421
sg36
(lp3714
(lp3715
I-7
aI10
aI2
aa(lp3716
I-10
aI2
aI2
aasg40
(lp3717
(lp3718
I2
aI-5
aI-2
aI8
aI00
aI00
aI00
aa(lp3719
I-4
aI4
aI0
aI8
aI00
aI00
aI00
aasa(dp3720
g24
I2
sg25
I8
sg26
I180
sg27
I2
sg3417
F8.0
sg28
I2
sg3418
I180
sg29
I2
sg30
F3.8065099716186523
sg31
F3.939939022064209
sg32
(lp3721
I1
aI3
aI5
aI8
aI10
aI5
asg3420
F2.557050943374634
sg607
F0.5616848468780518
sg34
g3421
sg36
(lp3722
(lp3723
I-10
aI9
aI2
aa(lp3724
I10
aI3
aI2
aasg40
(lp3725
(lp3726
I2
aI-4
aI-8
aI10
aI01
aI00
aI00
aa(lp3727
I-1
aI-10
aI-3
aI5
aI01
aI00
aI00
aasa(dp3728
g24
I2
sg25
I8
sg26
I107
sg27
I2
sg3417
F13.0
sg28
I2
sg3418
I100
sg29
I2
sg30
F2.3219940662384033
sg31
F2.073068618774414
sg32
(lp3729
I0
aI0
aI10
aI9
aI8
aI0
asg3420
F1.3640120029449463
sg607
F4.353626489639282
sg34
g3421
sg36
(lp3730
(lp3731
I4
aI-6
aI2
aa(lp3732
I1
aI-9
aI2
aasg40
(lp3733
(lp3734
I6
aI8
aI1
aI9
aI00
aI00
aI01
aa(lp3735
I-2
aI-10
aI-5
aI-10
aI00
aI01
aI00
aasa(dp3736
g24
I2
sg25
I8
sg26
I141
sg27
I2
sg3417
F0.0
sg28
I2
sg3418
I140
sg29
I2
sg30
F3.002042055130005
sg31
F1.808499813079834
sg32
(lp3737
I9
aI4
aI8
aI7
aI3
aI9
asg3420
F2.02311110496521
sg607
F1.1288840770721436
sg34
g3421
sg36
(lp3738
(lp3739
I9
aI-2
aI2
aa(lp3740
I10
aI-1
aI2
aasg40
(lp3741
(lp3742
I6
aI7
aI9
aI10
aI01
aI00
aI00
aa(lp3743
I7
aI1
aI-9
aI2
aI00
aI01
aI00
aasa(dp3744
g24
I2
sg25
I8
sg26
I120
sg27
I2
sg3417
F0.0
sg28
I2
sg3418
I120
sg29
I2
sg30
F2.6000821590423584
sg31
F0.9896929264068604
sg32
(lp3745
I4
aI1
aI0
aI10
aI5
aI10
asg3420
F1.7050750255584717
sg607
F0.5998258590698242
sg34
g3421
sg36
(lp3746
(lp3747
I9
aI4
aI2
aa(lp3748
I-5
aI-3
aI2
aasg40
(lp3749
(lp3750
I2
aI-3
aI-3
aI5
aI00
aI00
aI00
aa(lp3751
I10
aI-9
aI5
aI1
aI01
aI00
aI01
aasa(dp3752
g24
I2
sg25
I8
sg26
I102
sg27
I2
sg3417
F9.0
sg28
I2
sg3418
I100
sg29
I2
sg30
F2.2194149494171143
sg31
F2.299121856689453
sg32
(lp3753
I1
aI9
aI6
aI1
aI10
aI3
asg3420
F1.4361538887023926
sg607
F1.7150990962982178
sg34
g3421
sg36
(lp3754
(lp3755
I9
aI3
aI2
aa(lp3756
I7
aI-10
aI2
aasg40
(lp3757
(lp3758
I2
aI7
aI3
aI10
aI00
aI01
aI00
aa(lp3759
I10
aI-8
aI3
aI-8
aI00
aI01
aI00
aasa(dp3760
g24
I2
sg25
I8
sg26
I163
sg27
I2
sg3417
F3.0
sg28
I2
sg3418
I160
sg29
I2
sg30
F3.510512113571167
sg31
F3.3443946838378906
sg32
(lp3761
I4
aI9
aI10
aI2
aI7
aI2
asg3420
F2.237734079360962
sg607
F2.326453685760498
sg34
g3421
sg36
(lp3762
(lp3763
I2
aI4
aI2
aa(lp3764
I-4
aI2
aI2
aasg40
(lp3765
(lp3766
I-4
aI-1
aI4
aI10
aI00
aI01
aI01
aa(lp3767
I-8
aI3
aI5
aI9
aI00
aI00
aI00
aasa(dp3768
g24
I2
sg25
I8
sg26
I100
sg27
I2
sg3417
F0.0
sg28
I2
sg3418
I100
sg29
I2
sg30
F2.1020660400390625
sg31
F2.4769628047943115
sg32
(lp3769
I2
aI0
aI0
aI2
aI0
aI6
asg3420
F1.4074862003326416
sg607
F0.5702290534973145
sg34
g3421
sg36
(lp3770
(lp3771
I5
aI0
aI2
aa(lp3772
I5
aI-7
aI2
aasg40
(lp3773
(lp3774
I3
aI-2
aI5
aI10
aI00
aI00
aI00
aa(lp3775
I10
aI5
aI-3
aI9
aI00
aI00
aI01
aasa(dp3776
g24
I2
sg25
I8
sg26
I101
sg27
I2
sg3417
F23.0
sg28
I2
sg3418
I80
sg29
I2
sg30
F2.2647039890289307
sg31
F38.63241219520569
sg32
(lp3777
I7
aI4
aI0
aI1
aI7
aI10
asg3420
F1.118703842163086
sg607
F13.09173035621643
sg34
g3421
sg36
(lp3778
(lp3779
I-1
aI3
aI2
aa(lp3780
I-2
aI-2
aI2
aasg40
(lp3781
(lp3782
I-4
aI1
aI-2
aI7
aI01
aI01
aI00
aa(lp3783
I6
aI1
aI-2
aI6
aI01
aI01
aI00
aasa(dp3784
g24
I1
sg25
I5
sg26
I60
sg27
I0
sg3417
F0.0
sg28
I2
sg3418
I60
sg29
I2
sg30
F1.2749950885772705
sg31
F0.15152788162231445
sg32
(lp3785
I2
aI7
aI0
aI5
aI1
aI10
asg3420
F0.8192598819732666
sg607
F0.5813028812408447
sg34
g3421
sg36
(lp3786
(lp3787
I7
aI-1
aI2
aasg40
(lp3788
sa(dp3789
g24
I2
sg25
I8
sg26
I183
sg27
I2
sg3417
F5.0
sg28
I2
sg3418
I180
sg29
I2
sg30
F3.9584381580352783
sg31
F2.7325479984283447
sg32
(lp3790
I9
aI6
aI6
aI5
aI8
aI1
asg3420
F2.523437023162842
sg607
F2.439586877822876
sg34
g3421
sg36
(lp3791
(lp3792
I6
aI-10
aI2
aa(lp3793
I-4
aI9
aI2
aasg40
(lp3794
(lp3795
I3
aI-8
aI-10
aI9
aI01
aI01
aI00
aa(lp3796
I-7
aI-9
aI-3
aI4
aI00
aI00
aI00
aasa(dp3797
g24
I2
sg25
I8
sg26
I82
sg27
I2
sg3417
F3.0
sg28
I2
sg3418
I80
sg29
I2
sg30
F1.7946138381958008
sg31
F8.852910995483398
sg32
(lp3798
I4
aI0
aI6
aI7
aI0
aI5
asg3420
F1.1004550457000732
sg607
F1.9337430000305176
sg34
g3421
sg36
(lp3799
(lp3800
I8
aI0
aI2
aa(lp3801
I-8
aI1
aI2
aasg40
(lp3802
(lp3803
I-7
aI-7
aI6
aI-3
aI00
aI00
aI01
aa(lp3804
I1
aI-10
aI-9
aI-6
aI01
aI00
aI01
aasa(dp3805
g24
I2
sg25
I8
sg26
I140
sg27
I2
sg3417
F0.0
sg28
I2
sg3418
I140
sg29
I2
sg30
F3.008352041244507
sg31
F1.4245169162750244
sg32
(lp3806
I2
aI8
aI9
aI3
aI5
aI2
asg3420
F1.9617929458618164
sg607
F0.6184649467468262
sg34
g3421
sg36
(lp3807
(lp3808
I3
aI-10
aI2
aa(lp3809
I-7
aI7
aI2
aasg40
(lp3810
(lp3811
I10
aI1
aI-8
aI4
aI00
aI01
aI00
aa(lp3812
I7
aI-8
aI5
aI0
aI00
aI00
aI00
aasa(dp3813
g24
I2
sg25
I8
sg26
I180
sg27
I2
sg3417
F0.0
sg28
I2
sg3418
I180
sg29
I2
sg30
F3.8284192085266113
sg31
F1.4485478401184082
sg32
(lp3814
I8
aI8
aI10
aI9
aI6
aI10
asg3420
F2.497102975845337
sg607
F0.6593160629272461
sg34
g3421
sg36
(lp3815
(lp3816
I-6
aI8
aI2
aa(lp3817
I1
aI8
aI2
aasg40
(lp3818
(lp3819
I-9
aI-3
aI2
aI4
aI00
aI01
aI01
aa(lp3820
I-3
aI-2
aI6
aI2
aI01
aI00
aI01
aasa(dp3821
g24
I2
sg25
I8
sg26
I142
sg27
I2
sg3417
F3.0
sg28
I2
sg3418
I140
sg29
I2
sg30
F3.089597702026367
sg31
F8.58957314491272
sg32
(lp3822
I5
aI2
aI9
aI1
aI7
aI0
asg3420
F1.9843900203704834
sg607
F1.8428609371185303
sg34
g3421
sg36
(lp3823
(lp3824
I-3
aI10
aI2
aa(lp3825
I10
aI-9
aI2
aasg40
(lp3826
(lp3827
I3
aI-1
aI5
aI4
aI00
aI01
aI01
aa(lp3828
I7
aI-7
aI-10
aI7
aI01
aI00
aI00
aasa(dp3829
g24
I2
sg25
I8
sg26
I120
sg27
I2
sg3417
F0.0
sg28
I2
sg3418
I120
sg29
I2
sg30
F2.5699479579925537
sg31
F1.7047119140625
sg32
(lp3830
I2
aI2
aI0
aI8
aI5
aI10
asg3420
F1.6960110664367676
sg607
F0.6199419498443604
sg34
g3421
sg36
(lp3831
(lp3832
I-3
aI0
aI2
aa(lp3833
I9
aI-7
aI2
aasg40
(lp3834
(lp3835
I-1
aI-7
aI0
aI-7
aI00
aI00
aI00
aa(lp3836
I0
aI-7
aI0
aI4
aI00
aI00
aI00
aasa(dp3837
g24
I2
sg25
I8
sg26
I117
sg27
I2
sg3417
F19.0
sg28
I2
sg3418
I80
sg29
I2
sg30
F2.6416282653808594
sg31
F30.42418909072876
sg32
(lp3838
I0
aI5
aI0
aI8
aI2
aI4
asg3420
F1.1248772144317627
sg607
F24.472949028015137
sg34
g3421
sg36
(lp3839
(lp3840
I-2
aI2
aI2
aa(lp3841
I6
aI6
aI2
aasg40
(lp3842
(lp3843
I-6
aI8
aI-7
aI10
aI00
aI00
aI00
aa(lp3844
I1
aI-8
aI-4
aI5
aI01
aI00
aI01
aasa(dp3845
g24
I2
sg25
I8
sg26
I64
sg27
I2
sg3417
F51.0
sg28
I2
sg3418
I60
sg29
I2
sg30
F1.3675718307495117
sg31
F7.4400670528411865
sg32
(lp3846
I10
aI0
aI0
aI9
aI6
aI5
asg3420
F0.8570671081542969
sg607
F3.266594171524048
sg34
g3421
sg36
(lp3847
(lp3848
I-6
aI-10
aI2
aa(lp3849
I-1
aI-2
aI2
aasg40
(lp3850
(lp3851
I0
aI-7
aI-2
aI-1
aI01
aI01
aI00
aa(lp3852
I-8
aI-8
aI-5
aI-7
aI00
aI00
aI00
aasa(dp3853
g24
I2
sg25
I8
sg26
I102
sg27
I2
sg3417
F8.0
sg28
I2
sg3418
I100
sg29
I2
sg30
F2.1680519580841064
sg31
F7.641158103942871
sg32
(lp3854
I6
aI6
aI7
aI1
aI2
aI0
asg3420
F1.4494719505310059
sg607
F1.990002155303955
sg34
g3421
sg36
(lp3855
(lp3856
I10
aI0
aI2
aa(lp3857
I-1
aI8
aI2
aasg40
(lp3858
(lp3859
I-8
aI4
aI-1
aI7
aI00
aI01
aI00
aa(lp3860
I-4
aI-1
aI-6
aI4
aI00
aI01
aI00
aasa(dp3861
g24
I2
sg25
I6
sg26
I80
sg27
I0
sg3417
F0.0
sg28
I2
sg3418
I80
sg29
I2
sg30
F1.7247200012207031
sg31
F0.20888996124267578
sg32
(lp3862
I0
aI1
aI9
aI0
aI8
aI10
asg3420
F1.129169225692749
sg607
F0.7035219669342041
sg34
g3421
sg36
(lp3863
(lp3864
I4
aI8
aI2
aa(lp3865
I-5
aI8
aI2
aasg40
(lp3866
sa(dp3867
g24
I2
sg25
I8
sg26
I64
sg27
I2
sg3417
F25.0
sg28
I2
sg3418
I60
sg29
I2
sg30
F1.3874599933624268
sg31
F11.693073034286499
sg32
(lp3868
I1
aI5
aI0
aI1
aI5
aI3
asg3420
F0.8466918468475342
sg607
F3.3180010318756104
sg34
g3421
sg36
(lp3869
(lp3870
I1
aI10
aI2
aa(lp3871
I-1
aI-8
aI2
aasg40
(lp3872
(lp3873
I1
aI-5
aI4
aI3
aI00
aI00
aI01
aa(lp3874
I1
aI-6
aI0
aI5
aI01
aI01
aI00
aasa(dp3875
g24
I2
sg25
I8
sg26
I121
sg27
I2
sg3417
F4.0
sg28
I2
sg3418
I120
sg29
I2
sg30
F2.622798204421997
sg31
F2.858104944229126
sg32
(lp3876
I9
aI1
aI8
aI7
aI3
aI3
asg3420
F1.6962080001831055
sg607
F1.3482191562652588
sg34
g3421
sg36
(lp3877
(lp3878
I6
aI-6
aI2
aa(lp3879
I-1
aI-6
aI2
aasg40
(lp3880
(lp3881
I4
aI-4
aI0
aI3
aI00
aI01
aI01
aa(lp3882
I9
aI-8
aI1
aI8
aI01
aI00
aI00
aasa(dp3883
g24
I2
sg25
I8
sg26
I123
sg27
I2
sg3417
F3.0
sg28
I2
sg3418
I120
sg29
I2
sg30
F2.6627748012542725
sg31
F7.848125457763672
sg32
(lp3884
I5
aI3
aI6
aI6
aI7
aI7
asg3420
F1.673508882522583
sg607
F2.693804979324341
sg34
g3421
sg36
(lp3885
(lp3886
I-1
aI1
aI2
aa(lp3887
I-3
aI-9
aI2
aasg40
(lp3888
(lp3889
I-10
aI-10
aI-1
aI5
aI01
aI00
aI01
aa(lp3890
I-7
aI-9
aI-8
aI3
aI00
aI00
aI00
aasa(dp3891
g24
I2
sg25
I8
sg26
I122
sg27
I2
sg3417
F2.0
sg28
I2
sg3418
I120
sg29
I2
sg30
F2.62162709236145
sg31
F4.564448833465576
sg32
(lp3892
I5
aI0
aI7
aI7
aI5
aI0
asg3420
F1.712109088897705
sg607
F2.0500898361206055
sg34
g3421
sg36
(lp3893
(lp3894
I-10
aI-7
aI2
aa(lp3895
I-8
aI1
aI2
aasg40
(lp3896
(lp3897
I4
aI-8
aI-6
aI4
aI01
aI01
aI01
aa(lp3898
I-1
aI-2
aI7
aI5
aI00
aI00
aI01
aasa(dp3899
g24
I2
sg25
I8
sg26
I123
sg27
I2
sg3417
F1.0
sg28
I2
sg3418
I120
sg29
I2
sg30
F2.618901014328003
sg31
F5.343634128570557
sg32
(lp3900
I9
aI10
aI6
aI4
aI4
aI0
asg3420
F1.64634108543396
sg607
F2.715904951095581
sg34
g3421
sg36
(lp3901
(lp3902
I-10
aI0
aI2
aa(lp3903
I1
aI8
aI2
aasg40
(lp3904
(lp3905
I-2
aI-1
aI-5
aI1
aI00
aI01
aI01
aa(lp3906
I6
aI5
aI-2
aI7
aI00
aI01
aI00
aasa(dp3907
g24
I2
sg25
I8
sg26
I103
sg27
I2
sg3417
F54.0
sg28
I2
sg3418
I100
sg29
I2
sg30
F2.2125699520111084
sg31
F2.6392199993133545
sg32
(lp3908
I1
aI1
aI2
aI1
aI3
aI10
asg3420
F1.441007137298584
sg607
F2.7577390670776367
sg34
g3421
sg36
(lp3909
(lp3910
I0
aI-5
aI2
aa(lp3911
I-6
aI-8
aI2
aasg40
(lp3912
(lp3913
I10
aI-3
aI-5
aI1
aI00
aI01
aI01
aa(lp3914
I3
aI0
aI6
aI10
aI00
aI01
aI00
aasa(dp3915
g24
I2
sg25
I8
sg26
I140
sg27
I2
sg3417
F22.0
sg28
I2
sg3418
I140
sg29
I2
sg30
F2.9715869426727295
sg31
F2.098870038986206
sg32
(lp3916
I10
aI7
aI0
aI8
aI3
aI1
asg3420
F1.9593000411987305
sg607
F0.7369401454925537
sg34
g3421
sg36
(lp3917
(lp3918
I1
aI-2
aI2
aa(lp3919
I-5
aI-5
aI2
aasg40
(lp3920
(lp3921
I1
aI-8
aI-6
aI10
aI00
aI00
aI00
aa(lp3922
I4
aI2
aI-5
aI3
aI01
aI00
aI01
aasa(dp3923
g24
I2
sg25
I6
sg26
I62
sg27
I1
sg3417
F107.0
sg28
I2
sg3418
I60
sg29
I1
sg30
F1.346710205078125
sg31
F0.5295050144195557
sg32
(lp3924
I9
aI7
aI10
aI7
aI5
aI8
asg3420
F0.8730118274688721
sg607
F2.1051011085510254
sg34
g3421
sg36
(lp3925
(lp3926
I-9
aI-7
aI2
aa(lp3927
I4
aI4
aI2
aasg40
(lp3928
(lp3929
I6
aI1
aI-4
aI1
aI00
aI00
aI00
aasa(dp3930
g24
I2
sg25
I8
sg26
I160
sg27
I2
sg3417
F0.0
sg28
I2
sg3418
I160
sg29
I2
sg30
F3.401531934738159
sg31
F3.054337978363037
sg32
(lp3931
I5
aI10
aI0
aI5
aI6
aI7
asg3420
F2.2136518955230713
sg607
F0.6983680725097656
sg34
g3421
sg36
(lp3932
(lp3933
I10
aI6
aI2
aa(lp3934
I-1
aI-10
aI2
aasg40
(lp3935
(lp3936
I9
aI-8
aI-3
aI-1
aI01
aI00
aI01
aa(lp3937
I-7
aI-9
aI-6
aI-5
aI00
aI00
aI01
aasa(dp3938
g24
I2
sg25
I8
sg26
I96
sg27
I2
sg3417
F129.0
sg28
I2
sg3418
I80
sg29
I2
sg30
F2.102004051208496
sg31
F0.7174651622772217
sg32
(lp3939
I0
aI9
aI1
aI0
aI1
aI10
asg3420
F1.1202061176300049
sg607
F12.144873857498169
sg34
g3421
sg36
(lp3940
(lp3941
I5
aI9
aI2
aa(lp3942
I10
aI3
aI2
aasg40
(lp3943
(lp3944
I4
aI8
aI4
aI9
aI00
aI01
aI00
aa(lp3945
I-2
aI1
aI-7
aI1
aI00
aI01
aI00
aasa(dp3946
g24
I1
sg25
I7
sg26
I102
sg27
I2
sg3417
F1.0
sg28
I2
sg3418
I100
sg29
I2
sg30
F2.1541950702667236
sg31
F2.0553689002990723
sg32
(lp3947
I6
aI1
aI2
aI1
aI1
aI2
asg3420
F1.4461920261383057
sg607
F2.177976131439209
sg34
g3421
sg36
(lp3948
(lp3949
I8
aI1
aI2
aasg40
(lp3950
(lp3951
I10
aI4
aI0
aI7
aI00
aI01
aI01
aa(lp3952
I6
aI-5
aI-1
aI10
aI00
aI01
aI01
aasa(dp3953
g24
I2
sg25
I6
sg26
I81
sg27
I1
sg3417
F133.0
sg28
I2
sg3418
I80
sg29
I1
sg30
F1.7207660675048828
sg31
F0.7336208820343018
sg32
(lp3954
I4
aI5
aI10
aI6
aI8
aI10
asg3420
F1.098680019378662
sg607
F1.4215638637542725
sg34
g3421
sg36
(lp3955
(lp3956
I-6
aI-2
aI2
aa(lp3957
I-3
aI-8
aI2
aasg40
(lp3958
(lp3959
I-10
aI-6
aI-5
aI7
aI00
aI00
aI01
aasa(dp3960
g24
I2
sg25
I6
sg26
I101
sg27
I1
sg3417
F67.0
sg28
I2
sg3418
I100
sg29
I1
sg30
F2.174973249435425
sg31
F3.8461530208587646
sg32
(lp3961
I5
aI0
aI9
aI5
aI0
aI4
asg3420
F1.3797149658203125
sg607
F1.458503007888794
sg34
g3421
sg36
(lp3962
(lp3963
I-7
aI9
aI2
aa(lp3964
I1
aI-3
aI2
aasg40
(lp3965
(lp3966
I-6
aI0
aI10
aI6
aI01
aI00
aI01
aasaa.