(lp0
(lp1
(dp2
S'n_squares'
p3
I2
sS'program_size'
p4
I8
sS'ce_size'
p5
I1024
sS'n_lines'
p6
I2
sS'iter_i'
p7
I2
sS'iter_j'
p8
I2
sS'building_time'
p9
F22.320443868637085
sS'solving_time'
p10
F3.9290010929107666
sS'transforms'
p11
(lp12
I9
aI0
aI7
aI1
aI3
aI10
asS'method'
p13
S'full'
p14
sS'squares'
p15
(lp16
(lp17
I-5
aI-9
aI2
aa(lp18
I10
aI-10
aI2
aasS'lines'
p19
(lp20
(lp21
I-8
aI-9
aI-2
aI6
aI01
aI01
aI00
aa(lp22
I6
aI-7
aI8
aI-1
aI00
aI01
aI00
aasa(dp23
g3
I2
sg4
I8
sg5
I1024
sg6
I2
sg7
I2
sg8
I2
sg9
F22.36383080482483
sg10
F2.4730751514434814
sg11
(lp24
I0
aI0
aI10
aI0
aI10
aI5
asg13
g14
sg15
(lp25
(lp26
I2
aI-5
aI2
aa(lp27
I-7
aI-8
aI2
aasg19
(lp28
(lp29
I-6
aI6
aI4
aI9
aI00
aI01
aI01
aa(lp30
I-1
aI9
aI10
aI10
aI00
aI00
aI00
aasa(dp31
g3
I2
sg4
I8
sg5
I1024
sg6
I2
sg7
I2
sg8
I2
sg9
F22.37798309326172
sg10
F2.660759925842285
sg11
(lp32
I6
aI4
aI10
aI10
aI4
aI7
asg13
g14
sg15
(lp33
(lp34
I3
aI-2
aI2
aa(lp35
I-5
aI-9
aI2
aasg19
(lp36
(lp37
I-6
aI-6
aI-7
aI6
aI00
aI01
aI01
aa(lp38
I-2
aI7
aI-9
aI10
aI01
aI01
aI00
aasa(dp39
g3
I2
sg4
I8
sg5
I1024
sg6
I2
sg7
I2
sg8
I2
sg9
F22.64139699935913
sg10
F1.425873041152954
sg11
(lp40
I6
aI10
aI10
aI0
aI0
aI0
asg13
g14
sg15
(lp41
(lp42
I6
aI8
aI2
aa(lp43
I-10
aI0
aI2
aasg19
(lp44
(lp45
I10
aI9
aI9
aI9
aI00
aI00
aI00
aa(lp46
I10
aI9
aI-6
aI9
aI00
aI00
aI00
aasa(dp47
g3
I2
sg4
I8
sg5
I1024
sg6
I2
sg7
I2
sg8
I2
sg9
F22.524971961975098
sg10
F2.6679940223693848
sg11
(lp48
I8
aI9
aI10
aI3
aI6
aI6
asg13
g14
sg15
(lp49
(lp50
I7
aI-6
aI2
aa(lp51
I-4
aI-6
aI2
aasg19
(lp52
(lp53
I8
aI9
aI1
aI10
aI00
aI00
aI00
aa(lp54
I1
aI10
aI1
aI10
aI01
aI00
aI00
aasa(dp55
g3
I2
sg4
I8
sg5
I1024
sg6
I2
sg7
I2
sg8
I2
sg9
F22.545175075531006
sg10
F7.622048854827881
sg11
(lp56
I2
aI9
aI7
aI0
aI8
aI10
asg13
g14
sg15
(lp57
(lp58
I-2
aI-7
aI2
aa(lp59
I4
aI2
aI2
aasg19
(lp60
(lp61
I10
aI-8
aI2
aI-4
aI00
aI01
aI01
aa(lp62
I7
aI-4
aI6
aI0
aI01
aI00
aI00
aasa(dp63
g3
I2
sg4
I8
sg5
I1024
sg6
I2
sg7
I2
sg8
I2
sg9
F22.48409104347229
sg10
F4.352747917175293
sg11
(lp64
I7
aI1
aI10
aI9
aI5
aI8
asg13
g14
sg15
(lp65
(lp66
I-6
aI-2
aI2
aa(lp67
I7
aI-6
aI2
aasg19
(lp68
(lp69
I-6
aI6
aI-6
aI10
aI01
aI01
aI00
aa(lp70
I0
aI-4
aI1
aI3
aI01
aI00
aI00
aasaa(lp71
(dp72
g3
I2
sg4
I8
sg5
I103
sg6
I2
sg7
I2
sS'orig_subset_size'
p73
I0
sg8
I2
sg9
F2.3513433933258057
sg10
F6.9815709590911865
sg11
(lp74
I0
aI9
aI9
aI5
aI1
aI8
asS'checking_time'
p75
F0.2751181125640869
sg13
S'cegis'
p76
sg15
(lp77
(lp78
I-7
aI-9
aI2
aa(lp79
I8
aI-10
aI2
aasg19
(lp80
(lp81
I-10
aI-9
aI-4
aI6
aI01
aI01
aI00
aa(lp82
I4
aI-7
aI6
aI-1
aI01
aI00
aI00
aasa(dp83
g3
I2
sg4
I7
sg5
I139
sg6
I2
sg7
I2
sg73
I0
sg8
I1
sg9
F3.1946611404418945
sg10
F3.0857086181640625
sg11
(lp84
I0
aI0
aI10
aI10
aI0
aI7
asg75
F0.36060595512390137
sg13
g76
sg15
(lp85
(lp86
I2
aI-7
aI2
aa(lp87
I-7
aI-10
aI2
aasg19
(lp88
(lp89
I-6
aI4
aI4
aI7
aI01
aI00
aI01
aa(lp90
I-1
aI7
aI10
aI8
aI00
aI00
aI00
aasa(dp91
g3
I2
sg4
I8
sg5
I107
sg6
I2
sg7
I2
sg73
I0
sg8
I2
sg9
F2.4467990398406982
sg10
F6.89189338684082
sg11
(lp92
I6
aI4
aI3
aI10
aI4
aI8
asg75
F0.2678542137145996
sg13
g76
sg15
(lp93
(lp94
I2
aI-10
aI2
aa(lp95
I10
aI-3
aI2
aasg19
(lp96
(lp97
I5
aI6
aI-2
aI9
aI01
aI01
aI00
aa(lp98
I1
aI-10
aI0
aI5
aI00
aI01
aI01
aasa(dp99
g3
I2
sg4
I7
sg5
I52
sg6
I1
sg7
I2
sg73
I0
sg8
I2
sg9
F1.1941337585449219
sg10
F0.6415185928344727
sg11
(lp100
I6
aI10
aI8
aI0
aI0
aI0
asg75
F0.13377904891967773
sg13
g76
sg15
(lp101
(lp102
I-8
aI0
aI2
aa(lp103
I8
aI8
aI2
aasg19
(lp104
(lp105
I5
aI9
aI-4
aI9
aI00
aI00
aI00
aasa(dp106
g3
I2
sg4
I8
sg5
I70
sg6
I2
sg7
I2
sg73
I0
sg8
I2
sg9
F1.6023247241973877
sg10
F0.9908452033996582
sg11
(lp107
I9
aI8
aI10
aI6
aI3
aI6
asg75
F0.1728062629699707
sg13
g76
sg15
(lp108
(lp109
I7
aI-6
aI2
aa(lp110
I-4
aI-6
aI2
aasg19
(lp111
(lp112
I8
aI9
aI1
aI10
aI00
aI00
aI00
aa(lp113
I7
aI-7
aI9
aI-4
aI00
aI00
aI00
aasa(dp114
g3
I2
sg4
I8
sg5
I80
sg6
I2
sg7
I2
sg73
I0
sg8
I2
sg9
F1.843245506286621
sg10
F8.575382709503174
sg11
(lp115
I9
aI2
aI10
aI8
aI0
aI2
asg75
F0.19342708587646484
sg13
g76
sg15
(lp116
(lp117
I-5
aI1
aI2
aa(lp118
I1
aI10
aI2
aasg19
(lp119
(lp120
I7
aI0
aI-1
aI4
aI01
aI00
aI01
aa(lp121
I4
aI4
aI3
aI7
aI00
aI01
aI00
aasa(dp122
g3
I2
sg4
I8
sg5
I149
sg6
I2
sg7
I2
sg73
I0
sg8
I2
sg9
F3.439161539077759
sg10
F7.2857091426849365
sg11
(lp123
I1
aI7
aI7
aI5
aI9
aI8
asg75
F0.38111448287963867
sg13
g76
sg15
(lp124
(lp125
I10
aI-6
aI2
aa(lp126
I-3
aI-2
aI2
aasg19
(lp127
(lp128
I-3
aI6
aI-1
aI10
aI01
aI01
aI00
aa(lp129
I3
aI-4
aI4
aI3
aI00
aI01
aI00
aasaa(lp130
(dp131
g3
I2
sg4
I8
sg5
I74
sg6
I2
sg7
I2
sg73
I0
sg8
I2
sg9
F1.6691663265228271
sg10
F17.161906242370605
sg11
(lp132
I0
aI9
aI9
aI3
aI1
aI10
asg75
F0.19953536987304688
sg13
S'r_cegis'
p133
sg15
(lp134
(lp135
I8
aI-10
aI2
aa(lp136
I-7
aI-9
aI2
aasg19
(lp137
(lp138
I-10
aI-9
aI-4
aI6
aI01
aI01
aI00
aa(lp139
I4
aI-7
aI6
aI-1
aI01
aI00
aI00
aasa(dp140
g3
I2
sg4
I7
sg5
I50
sg6
I2
sg7
I1
sg73
I0
sg8
I2
sg9
F1.1343207359313965
sg10
F1.0766358375549316
sg11
(lp141
I2
aI0
aI10
aI5
aI10
aI5
asg75
F0.12193417549133301
sg13
g133
sg15
(lp142
(lp143
I-7
aI-8
aI2
aa(lp144
I2
aI-5
aI2
aasg19
(lp145
(lp146
I-1
aI9
aI10
aI10
aI00
aI00
aI00
aa(lp147
I-6
aI6
aI4
aI10
aI00
aI01
aI01
aasa(dp148
g3
I2
sg4
I8
sg5
I64
sg6
I2
sg7
I2
sg73
I0
sg8
I2
sg9
F1.4797024726867676
sg10
F48.17516589164734
sg11
(lp149
I6
aI8
aI7
aI10
aI7
aI8
asg75
F0.1831986904144287
sg13
g133
sg15
(lp150
(lp151
I-2
aI-10
aI2
aa(lp152
I2
aI-6
aI2
aasg19
(lp153
(lp154
I-7
aI-10
aI-8
aI2
aI00
aI01
aI01
aa(lp155
I-3
aI3
aI-10
aI10
aI01
aI01
aI00
aasa(dp156
g3
I2
sg4
I8
sg5
I46
sg6
I2
sg7
I2
sg73
I0
sg8
I2
sg9
F1.049368143081665
sg10
F0.8439507484436035
sg11
(lp157
I10
aI6
aI8
aI0
aI0
aI0
asg75
F0.12974143028259277
sg13
g133
sg15
(lp158
(lp159
I8
aI8
aI2
aa(lp160
I-8
aI0
aI2
aasg19
(lp161
(lp162
I9
aI6
aI6
aI10
aI00
aI00
aI00
aa(lp163
I5
aI9
aI-10
aI9
aI00
aI01
aI00
aasa(dp164
g3
I2
sg4
I7
sg5
I50
sg6
I1
sg7
I2
sg73
I0
sg8
I2
sg9
F1.1407597064971924
sg10
F13.777175426483154
sg11
(lp165
I8
aI9
aI10
aI3
aI6
aI6
asg75
F0.14059734344482422
sg13
g133
sg15
(lp166
(lp167
I7
aI-6
aI2
aa(lp168
I-4
aI-6
aI2
aasg19
(lp169
(lp170
I8
aI9
aI1
aI10
aI00
aI00
aI00
aasa(dp171
g3
I2
sg4
I8
sg5
I57
sg6
I2
sg7
I2
sg73
I0
sg8
I2
sg9
F1.3184599876403809
sg10
F118.16467142105103
sg11
(lp172
I2
aI9
aI10
aI0
aI8
aI10
asg75
F0.16304445266723633
sg13
g133
sg15
(lp173
(lp174
I1
aI2
aI2
aa(lp175
I-5
aI-7
aI2
aasg19
(lp176
(lp177
I7
aI-8
aI-1
aI-4
aI00
aI01
aI01
aa(lp178
I4
aI-4
aI3
aI2
aI01
aI00
aI00
aasa(dp179
g3
I2
sg4
I8
sg5
I52
sg6
I2
sg7
I2
sg73
I0
sg8
I2
sg9
F1.198167324066162
sg10
F19.86150050163269
sg11
(lp180
I7
aI1
aI10
aI9
aI5
aI10
asg75
F0.15084362030029297
sg13
g133
sg15
(lp181
(lp182
I-6
aI-4
aI2
aa(lp183
I7
aI-8
aI2
aasg19
(lp184
(lp185
I0
aI-6
aI1
aI1
aI01
aI00
aI00
aa(lp186
I-6
aI4
aI-3
aI8
aI01
aI01
aI00
aasaa(lp187
(dp188
g3
I2
sg4
I8
sg5
I68
sg6
I2
sg7
I2
sg73
I0
sg8
I2
sg9
F1.5504779815673828
sg10
F54.323968172073364
sg11
(lp189
I0
aI9
aI7
aI3
aI1
aI10
asg75
F0.19366693496704102
sg13
S'a_cegis'
p190
sg15
(lp191
(lp192
I10
aI-10
aI2
aa(lp193
I-5
aI-9
aI2
aasg19
(lp194
(lp195
I6
aI-7
aI8
aI-1
aI01
aI00
aI00
aa(lp196
I-8
aI-9
aI-2
aI6
aI01
aI01
aI00
aasa(dp197
g3
I2
sg4
I7
sg5
I69
sg6
I2
sg7
I2
sg73
I0
sg8
I1
sg9
F1.5630364418029785
sg10
F2.1819143295288086
sg11
(lp198
I0
aI10
aI10
aI10
aI1
aI6
asg75
F0.16800236701965332
sg13
g190
sg15
(lp199
(lp200
I2
aI-6
aI2
aa(lp201
I-7
aI-9
aI2
aasg19
(lp202
(lp203
I-1
aI8
aI10
aI9
aI00
aI00
aI00
aa(lp204
I-6
aI5
aI4
aI8
aI01
aI00
aI01
aasa(dp205
g3
I2
sg4
I8
sg5
I76
sg6
I2
sg7
I2
sg73
I0
sg8
I2
sg9
F1.741955280303955
sg10
F43.12161064147949
sg11
(lp206
I4
aI6
aI3
aI4
aI10
aI8
asg75
F0.2157750129699707
sg13
g190
sg15
(lp207
(lp208
I2
aI-10
aI2
aa(lp209
I10
aI-3
aI2
aasg19
(lp210
(lp211
I5
aI6
aI-2
aI9
aI01
aI01
aI00
aa(lp212
I1
aI-7
aI0
aI5
aI01
aI00
aI01
aasa(dp213
g3
I2
sg4
I8
sg5
I58
sg6
I2
sg7
I2
sg73
I0
sg8
I2
sg9
F1.3470187187194824
sg10
F2.8317837715148926
sg11
(lp214
I10
aI6
aI10
aI0
aI0
aI3
asg75
F0.153059720993042
sg13
g190
sg15
(lp215
(lp216
I-10
aI-3
aI2
aa(lp217
I6
aI5
aI2
aasg19
(lp218
(lp219
I10
aI10
aI6
aI10
aI01
aI01
aI00
aa(lp220
I3
aI6
aI-6
aI6
aI00
aI00
aI00
aasa(dp221
g3
I2
sg4
I7
sg5
I55
sg6
I1
sg7
I2
sg73
I0
sg8
I2
sg9
F1.272599697113037
sg10
F3.376336097717285
sg11
(lp222
I8
aI9
aI10
aI3
aI6
aI10
asg75
F0.14585399627685547
sg13
g190
sg15
(lp223
(lp224
I7
aI-10
aI2
aa(lp225
I-4
aI-10
aI2
aasg19
(lp226
(lp227
I8
aI5
aI1
aI6
aI00
aI00
aI00
aasa(dp228
g3
I2
sg4
I8
sg5
I76
sg6
I2
sg7
I2
sg73
I0
sg8
I2
sg9
F1.7641940116882324
sg10
F28.804405450820923
sg11
(lp229
I9
aI2
aI10
aI8
aI0
aI2
asg75
F0.19669556617736816
sg13
g190
sg15
(lp230
(lp231
I1
aI10
aI2
aa(lp232
I-5
aI1
aI2
aasg19
(lp233
(lp234
I4
aI4
aI3
aI7
aI00
aI01
aI00
aa(lp235
I7
aI0
aI-1
aI4
aI01
aI00
aI01
aasa(dp236
g3
I2
sg4
I8
sg5
I89
sg6
I2
sg7
I2
sg73
I0
sg8
I2
sg9
F2.0808565616607666
sg10
F10.114566326141357
sg11
(lp237
I1
aI7
aI10
aI5
aI9
aI10
asg75
F0.243696928024292
sg13
g190
sg15
(lp238
(lp239
I-6
aI-4
aI2
aa(lp240
I7
aI-8
aI2
aasg19
(lp241
(lp242
I0
aI-6
aI1
aI1
aI00
aI01
aI00
aa(lp243
I-6
aI4
aI-5
aI8
aI01
aI01
aI00
aasaa(lp244
(dp245
g3
I2
sg4
I8
sg5
I210
sg6
I2
sg7
I2
sg73
I204
sg8
I2
sg9
F4.609488010406494
sg10
F10.043844938278198
sg11
(lp246
I0
aI9
aI9
aI5
aI1
aI4
asg75
F0.019337177276611328
sg13
S'rand+cegis'
p247
sg15
(lp248
(lp249
I8
aI-6
aI2
aa(lp250
I-7
aI-5
aI2
aasg19
(lp251
(lp252
I4
aI-3
aI6
aI3
aI01
aI00
aI00
aa(lp253
I-10
aI-5
aI-4
aI10
aI01
aI01
aI00
aasa(dp254
g3
I2
sg4
I8
sg5
I212
sg6
I2
sg7
I2
sg73
I204
sg8
I2
sg9
F4.69160008430481
sg10
F3.1199119091033936
sg11
(lp255
I0
aI0
aI10
aI10
aI0
aI7
asg75
F0.02382493019104004
sg13
g247
sg15
(lp256
(lp257
I-7
aI-10
aI2
aa(lp258
I2
aI-7
aI2
aasg19
(lp259
(lp260
I-6
aI4
aI4
aI7
aI01
aI00
aI01
aa(lp261
I-1
aI7
aI10
aI8
aI00
aI00
aI00
aasa(dp262
g3
I2
sg4
I8
sg5
I214
sg6
I2
sg7
I2
sg73
I204
sg8
I2
sg9
F4.7255940437316895
sg10
F9.525948762893677
sg11
(lp263
I6
aI8
aI0
aI10
aI7
aI7
asg75
F0.029744863510131836
sg13
g247
sg15
(lp264
(lp265
I5
aI-9
aI2
aa(lp266
I9
aI-5
aI2
aasg19
(lp267
(lp268
I0
aI-10
aI-1
aI3
aI00
aI01
aI01
aa(lp269
I4
aI4
aI-3
aI8
aI01
aI01
aI00
aasa(dp270
g3
I2
sg4
I8
sg5
I209
sg6
I2
sg7
I2
sg73
I204
sg8
I2
sg9
F4.669777154922485
sg10
F1.236426591873169
sg11
(lp271
I10
aI6
aI9
aI0
aI0
aI10
asg75
F0.01764082908630371
sg13
g247
sg15
(lp272
(lp273
I-9
aI-10
aI2
aa(lp274
I7
aI-2
aI2
aasg19
(lp275
(lp276
I10
aI-1
aI-5
aI-1
aI00
aI00
aI00
aa(lp277
I-7
aI-9
aI-10
aI-9
aI00
aI00
aI00
aasa(dp278
g3
I2
sg4
I7
sg5
I206
sg6
I1
sg7
I2
sg73
I204
sg8
I2
sg9
F4.581115245819092
sg10
F1.706932783126831
sg11
(lp279
I8
aI9
aI10
aI3
aI6
aI10
asg75
F0.007538318634033203
sg13
g247
sg15
(lp280
(lp281
I7
aI-10
aI2
aa(lp282
I-4
aI-10
aI2
aasg19
(lp283
(lp284
I8
aI5
aI1
aI6
aI00
aI00
aI00
aasa(dp285
g3
I2
sg4
I8
sg5
I209
sg6
I2
sg7
I2
sg73
I204
sg8
I2
sg9
F4.67652153968811
sg10
F14.5683012008667
sg11
(lp286
I2
aI9
aI10
aI0
aI8
aI2
asg75
F0.016959667205810547
sg13
g247
sg15
(lp287
(lp288
I1
aI10
aI2
aa(lp289
I-5
aI1
aI2
aasg19
(lp290
(lp291
I7
aI0
aI-1
aI4
aI00
aI01
aI01
aa(lp292
I4
aI4
aI3
aI9
aI01
aI00
aI00
aasa(dp293
g3
I2
sg4
I8
sg5
I213
sg6
I2
sg7
I2
sg73
I204
sg8
I2
sg9
F4.785400629043579
sg10
F15.198939085006714
sg11
(lp294
I7
aI1
aI7
aI9
aI5
aI10
asg75
F0.02775406837463379
sg13
g247
sg15
(lp295
(lp296
I-3
aI-4
aI2
aa(lp297
I10
aI-8
aI2
aasg19
(lp298
(lp299
I3
aI-6
aI4
aI1
aI01
aI00
aI00
aa(lp300
I-3
aI4
aI-3
aI10
aI01
aI01
aI00
aasaa(lp301
(dp302
g3
I2
sg4
I8
sg5
I245
sg6
I2
sg7
I2
sg73
I244
sg8
I2
sg9
F5.3674609661102295
sg10
F5.119127988815308
sg11
(lp303
I0
aI9
aI7
aI3
aI1
aI6
asg75
F0.005654096603393555
sg13
S'h1+cegis'
p304
sg15
(lp305
(lp306
I-5
aI-5
aI2
aa(lp307
I10
aI-6
aI2
aasg19
(lp308
(lp309
I6
aI-3
aI8
aI3
aI01
aI00
aI00
aa(lp310
I-8
aI-5
aI-2
aI10
aI01
aI01
aI00
aasa(dp311
g3
I2
sg4
I8
sg5
I232
sg6
I2
sg7
I2
sg73
I232
sg8
I2
sg9
F5.09420108795166
sg10
F1.2130978107452393
sg11
(lp312
I0
aI0
aI10
aI10
aI0
aI5
asg75
F0.00308990478515625
sg13
g304
sg15
(lp313
(lp314
I2
aI-5
aI2
aa(lp315
I-7
aI-8
aI2
aasg19
(lp316
(lp317
I-1
aI9
aI10
aI10
aI00
aI00
aI00
aa(lp318
I-6
aI6
aI4
aI9
aI01
aI00
aI01
aasa(dp319
g3
I2
sg4
I8
sg5
I281
sg6
I2
sg7
I2
sg73
I280
sg8
I2
sg9
F6.177094221115112
sg10
F2.295184850692749
sg11
(lp320
I6
aI4
aI10
aI10
aI4
aI8
asg75
F0.005541086196899414
sg13
g304
sg15
(lp321
(lp322
I-5
aI-10
aI2
aa(lp323
I3
aI-3
aI2
aasg19
(lp324
(lp325
I-6
aI-8
aI-7
aI5
aI00
aI01
aI01
aa(lp326
I-2
aI6
aI-9
aI9
aI01
aI01
aI00
aasa(dp327
g3
I2
sg4
I8
sg5
I186
sg6
I2
sg7
I2
sg73
I186
sg8
I2
sg9
F4.1273369789123535
sg10
F0.5847890377044678
sg11
(lp328
I6
aI10
aI10
aI0
aI0
aI0
asg75
F0.0029599666595458984
sg13
g304
sg15
(lp329
(lp330
I6
aI8
aI2
aa(lp331
I-10
aI0
aI2
aasg19
(lp332
(lp333
I9
aI-10
aI10
aI-9
aI00
aI00
aI00
aa(lp334
I5
aI6
aI-6
aI9
aI00
aI00
aI01
aasa(dp335
g3
I2
sg4
I8
sg5
I277
sg6
I2
sg7
I2
sg73
I277
sg8
I2
sg9
F6.137060880661011
sg10
F2.123063087463379
sg11
(lp336
I9
aI8
aI9
aI6
aI3
aI8
asg75
F0.002835988998413086
sg13
g304
sg15
(lp337
(lp338
I-3
aI-8
aI2
aa(lp339
I8
aI-8
aI2
aasg19
(lp340
(lp341
I9
aI7
aI2
aI8
aI00
aI00
aI00
aa(lp342
I10
aI-10
aI6
aI-10
aI00
aI00
aI00
aasa(dp343
g3
I2
sg4
I8
sg5
I228
sg6
I2
sg7
I2
sg73
I228
sg8
I2
sg9
F5.075275897979736
sg10
F1.4873740673065186
sg11
(lp344
I2
aI9
aI10
aI0
aI8
aI2
asg75
F0.002688884735107422
sg13
g304
sg15
(lp345
(lp346
I-5
aI1
aI2
aa(lp347
I1
aI10
aI2
aasg19
(lp348
(lp349
I7
aI0
aI-1
aI4
aI00
aI01
aI01
aa(lp350
I4
aI4
aI3
aI7
aI01
aI00
aI00
aasa(dp351
g3
I2
sg4
I8
sg5
I309
sg6
I2
sg7
I2
sg73
I308
sg8
I2
sg9
F6.964897871017456
sg10
F4.034652948379517
sg11
(lp352
I7
aI1
aI7
aI9
aI5
aI10
asg75
F0.005609035491943359
sg13
g304
sg15
(lp353
(lp354
I10
aI-8
aI2
aa(lp355
I-3
aI-4
aI2
aasg19
(lp356
(lp357
I3
aI-6
aI4
aI1
aI01
aI00
aI00
aa(lp358
I-3
aI4
aI-3
aI7
aI01
aI01
aI01
aasaa(lp359
(dp360
g3
I2
sg4
I8
sg5
I142
sg6
I2
sS'error'
p361
F18.0
sg7
I2
sg73
I140
sg8
I2
sg9
F3.100162982940674
sg10
F3.381298065185547
sg11
(lp362
I0
aI9
aI7
aI3
aI1
aI9
asS'nn_time'
p363
F3.0573010444641113
sg75
F0.00838017463684082
sg13
S'nn+cegis'
p364
sg15
(lp365
(lp366
I10
aI-9
aI2
aa(lp367
I-5
aI-8
aI2
aasg19
(lp368
(lp369
I-8
aI-8
aI-2
aI7
aI01
aI01
aI00
aa(lp370
I6
aI-6
aI8
aI0
aI01
aI00
aI00
aasa(dp371
g3
I2
sg4
I7
sg5
I141
sg6
I2
sg361
F1.0
sg7
I1
sg73
I140
sg8
I2
sg9
F3.0998528003692627
sg10
F1.4407730102539062
sg11
(lp372
I10
aI0
aI10
aI3
aI10
aI7
asg363
F2.0799129009246826
sg75
F0.004874706268310547
sg13
g364
sg15
(lp373
(lp374
I-7
aI-10
aI2
aa(lp375
I2
aI-7
aI2
aasg19
(lp376
(lp377
I-6
aI4
aI4
aI7
aI00
aI01
aI01
aa(lp378
I-1
aI7
aI10
aI8
aI00
aI00
aI00
aasa(dp379
g3
I2
sg4
I8
sg5
I162
sg6
I2
sg361
F10.0
sg7
I2
sg73
I160
sg8
I2
sg9
F3.536280870437622
sg10
F1.7062299251556396
sg11
(lp380
I6
aI4
aI3
aI10
aI4
aI7
asg363
F2.3565070629119873
sg75
F0.008253097534179688
sg13
g364
sg15
(lp381
(lp382
I2
aI-9
aI2
aa(lp383
I10
aI-2
aI2
aasg19
(lp384
(lp385
I5
aI7
aI-2
aI10
aI01
aI01
aI00
aa(lp386
I1
aI-10
aI0
aI6
aI00
aI01
aI01
aasa(dp387
g3
I2
sg4
I8
sg5
I101
sg6
I2
sg361
F18.0
sg7
I2
sg73
I100
sg8
I2
sg9
F2.2554819583892822
sg10
F0.8871476650238037
sg11
(lp388
I6
aI10
aI10
aI0
aI0
aI0
asg363
F1.4905009269714355
sg75
F0.0056858062744140625
sg13
g364
sg15
(lp389
(lp390
I-10
aI0
aI2
aa(lp391
I6
aI8
aI2
aasg19
(lp392
(lp393
I9
aI9
aI-6
aI9
aI00
aI00
aI00
aa(lp394
I10
aI10
aI10
aI10
aI00
aI00
aI00
aasa(dp395
g3
I2
sg4
I8
sg5
I160
sg6
I2
sg361
F0.0
sg7
I2
sg73
I160
sg8
I2
sg9
F3.5214641094207764
sg10
F0.649540901184082
sg11
(lp396
I9
aI8
aI10
aI6
aI3
aI10
asg363
F2.257047176361084
sg75
F0.0028591156005859375
sg13
g364
sg15
(lp397
(lp398
I7
aI-10
aI2
aa(lp399
I-4
aI-10
aI2
aasg19
(lp400
(lp401
I9
aI-10
aI8
aI-9
aI00
aI00
aI00
aa(lp402
I8
aI5
aI1
aI6
aI00
aI00
aI00
aasa(dp403
g3
I2
sg4
I8
sg5
I120
sg6
I2
sg361
F1.0
sg7
I2
sg73
I120
sg8
I2
sg9
F2.641411781311035
sg10
F1.6047451496124268
sg11
(lp404
I9
aI2
aI7
aI8
aI0
aI7
asg363
F1.7398030757904053
sg75
F0.0026781558990478516
sg13
g364
sg15
(lp405
(lp406
I4
aI5
aI2
aa(lp407
I-2
aI-4
aI2
aasg19
(lp408
(lp409
I10
aI-5
aI2
aI-1
aI01
aI00
aI01
aa(lp410
I7
aI-1
aI6
aI2
aI00
aI01
aI00
aasa(dp411
g3
I2
sg4
I8
sg5
I162
sg6
I2
sg361
F17.0
sg7
I2
sg73
I160
sg8
I2
sg9
F3.6167657375335693
sg10
F2.6250040531158447
sg11
(lp412
I7
aI1
aI10
aI9
aI5
aI10
asg363
F2.265676975250244
sg75
F0.008307933807373047
sg13
g364
sg15
(lp413
(lp414
I7
aI-8
aI2
aa(lp415
I-6
aI-4
aI2
aasg19
(lp416
(lp417
I0
aI-6
aI1
aI1
aI01
aI00
aI00
aa(lp418
I-6
aI4
aI-4
aI8
aI01
aI01
aI00
aasaa.