((lp0
(dp1
S'correct'
p2
I01
sS'n_examples'
p3
I771
sS'method'
p4
S'full'
p5
sS'build_time'
p6
F18.529821157455444
sS'solve_time'
p7
F12.066017866134644
sa(dp8
g2
I01
sg3
I737
sg4
g5
sg6
F18.10499596595764
sg7
F0.8258171081542969
sa(dp9
g2
I01
sg3
I795
sg4
g5
sg6
F19.544477939605713
sg7
F7.293912172317505
sa(dp10
g2
I01
sg3
I716
sg4
g5
sg6
F17.826361894607544
sg7
F5.71400785446167
sa(dp11
g2
I01
sg3
I757
sg4
g5
sg6
F19.494336128234863
sg7
F1.641084909439087
sa(dp12
g2
I01
sg3
I847
sg4
g5
sg6
F21.33519697189331
sg7
F1.4317030906677246
sa(dp13
g2
I01
sg3
I860
sg4
g5
sg6
F21.192741870880127
sg7
F4.890581130981445
sa(dp14
g2
I01
sg3
I731
sg4
g5
sg6
F18.07361388206482
sg7
F1.7635009288787842
sa(dp15
g2
I01
sg3
I695
sg4
g5
sg6
F18.221246004104614
sg7
F427.82284808158875
sa(dp16
g2
I01
sg3
I802
sg4
g5
sg6
F20.60760998725891
sg7
F0.7557878494262695
sa(dp17
g2
I01
sg3
I815
sg4
g5
sg6
F20.52239203453064
sg7
F6.816936016082764
sa(dp18
g2
I01
sg3
I806
sg4
g5
sg6
F22.498849868774414
sg7
F2.1298248767852783
sa(dp19
g2
I01
sg3
I685
sg4
g5
sg6
F18.51631212234497
sg7
F1.3202779293060303
sa(dp20
g2
I01
sg3
I705
sg4
g5
sg6
F17.781330108642578
sg7
F8.769881963729858
sa(dp21
g2
I01
sg3
I875
sg4
g5
sg6
F21.896080017089844
sg7
F4.054543972015381
sa(dp22
g2
I01
sg3
I842
sg4
g5
sg6
F21.115175008773804
sg7
F1.1912689208984375
sa(dp23
g2
I01
sg3
I742
sg4
g5
sg6
F19.353995084762573
sg7
F4.895949125289917
sa(dp24
g2
I01
sg3
I787
sg4
g5
sg6
F19.783995866775513
sg7
F1.4559810161590576
sa(dp25
g2
I01
sg3
I743
sg4
g5
sg6
F18.58504295349121
sg7
F24.857449054718018
sa(dp26
g2
I01
sg3
I735
sg4
g5
sg6
F18.844536066055298
sg7
F2.3089699745178223
sa(dp27
g2
I01
sg3
I832
sg4
g5
sg6
F20.8661470413208
sg7
F2.474350929260254
sa(dp28
g2
I01
sg3
I762
sg4
g5
sg6
F19.13725519180298
sg7
F2.5256130695343018
sa(dp29
g2
I01
sg3
I800
sg4
g5
sg6
F20.09500503540039
sg7
F18.044989109039307
sa(dp30
g2
I01
sg3
I792
sg4
g5
sg6
F22.833377838134766
sg7
F2.3183698654174805
sa(dp31
g2
I01
sg3
I644
sg4
g5
sg6
F17.58829402923584
sg7
F14.249143123626709
sa(dp32
g2
I01
sg3
I831
sg4
g5
sg6
F20.81566309928894
sg7
F1.760556936264038
sa(dp33
g2
I01
sg3
I762
sg4
g5
sg6
F19.152376890182495
sg7
F11.12668514251709
sa(dp34
g2
I01
sg3
I740
sg4
g5
sg6
F18.854336977005005
sg7
F97.6275269985199
sa(dp35
g2
I01
sg3
I679
sg4
g5
sg6
F16.633326053619385
sg7
F8.588027000427246
sa(dp36
g2
I01
sg3
I760
sg4
g5
sg6
F18.719227075576782
sg7
F1.3622691631317139
sa(dp37
g2
I01
sg3
I743
sg4
g5
sg6
F18.560341119766235
sg7
F1.2886130809783936
sa(dp38
g2
I01
sg3
I847
sg4
g5
sg6
F20.909425020217896
sg7
F2.1462149620056152
sa(dp39
g2
I01
sg3
I688
sg4
g5
sg6
F17.220030784606934
sg7
F1.787451982498169
sa(dp40
g2
I01
sg3
I753
sg4
g5
sg6
F18.659783840179443
sg7
F17.33909511566162
sa(dp41
g2
I01
sg3
I840
sg4
g5
sg6
F22.57622003555298
sg7
F1.8066198825836182
sa(dp42
g2
I01
sg3
I777
sg4
g5
sg6
F19.105262994766235
sg7
F3.9312450885772705
sa(dp43
g2
I01
sg3
I852
sg4
g5
sg6
F21.909132957458496
sg7
F19.834131956100464
sa(dp44
g2
I01
sg3
I677
sg4
g5
sg6
F16.03165602684021
sg7
F2.248138189315796
sa(dp45
g2
I01
sg3
I876
sg4
g5
sg6
F22.103495121002197
sg7
F1.4334139823913574
sa(dp46
g2
I01
sg3
I799
sg4
g5
sg6
F18.88886308670044
sg7
F6.2013020515441895
sa(dp47
g2
I01
sg3
I765
sg4
g5
sg6
F18.37437415122986
sg7
F1.6457409858703613
sa(dp48
g2
I01
sg3
I857
sg4
g5
sg6
F20.44836688041687
sg7
F1.770827054977417
sa(dp49
g2
I01
sg3
I713
sg4
g5
sg6
F16.954702138900757
sg7
F1.358224868774414
sa(dp50
g2
I01
sg3
I803
sg4
g5
sg6
F19.275354146957397
sg7
F16.535706043243408
sa(dp51
g2
I01
sg3
I872
sg4
g5
sg6
F20.83768892288208
sg7
F12.72067403793335
sa(dp52
g2
I01
sg3
I772
sg4
g5
sg6
F18.511404991149902
sg7
F0.8023691177368164
sa(dp53
g2
I01
sg3
I811
sg4
g5
sg6
F19.396162033081055
sg7
F2.6377899646759033
sa(dp54
g2
I01
sg3
I837
sg4
g5
sg6
F21.737962007522583
sg7
F0.7673637866973877
sa(dp55
g2
I01
sg3
I783
sg4
g5
sg6
F21.4052631855011
sg7
F1.7934379577636719
sa(dp56
g2
I01
sg3
I791
sg4
g5
sg6
F19.02782392501831
sg7
F3.122469186782837
sa(dp57
g2
I01
sg3
I777
sg4
g5
sg6
F18.91538405418396
sg7
F0.9891140460968018
sa(dp58
g2
I01
sg3
I808
sg4
g5
sg6
F21.443499088287354
sg7
F1.5309381484985352
sa(dp59
g2
I01
sg3
I630
sg4
g5
sg6
F16.075371980667114
sg7
F0.9538619518280029
sa(dp60
g2
I01
sg3
I773
sg4
g5
sg6
F18.399544954299927
sg7
F1.5078740119934082
sa(dp61
g2
I01
sg3
I867
sg4
g5
sg6
F20.826557874679565
sg7
F1.8006689548492432
sa(dp62
g2
I01
sg3
I769
sg4
g5
sg6
F18.279792070388794
sg7
F4.822166919708252
sa(dp63
g2
I01
sg3
I801
sg4
g5
sg6
F19.146955966949463
sg7
F1.928659200668335
sa(dp64
g2
I01
sg3
I734
sg4
g5
sg6
F17.548412799835205
sg7
F9.708869934082031
sa(dp65
g2
I01
sg3
I746
sg4
g5
sg6
F20.849350929260254
sg7
F3.318057060241699
sa(dp66
g2
I01
sg3
I717
sg4
g5
sg6
F19.59437894821167
sg7
F10.983828067779541
sa(dp67
g2
I01
sg3
I676
sg4
g5
sg6
F18.221027851104736
sg7
F21.34157109260559
sa(dp68
g2
I01
sg3
I871
sg4
g5
sg6
F19.357744932174683
sg7
F9.21417498588562
sa(dp69
g2
I01
sg3
I689
sg4
g5
sg6
F15.288615942001343
sg7
F12.480854034423828
sa(dp70
g2
I01
sg3
I796
sg4
g5
sg6
F17.629072904586792
sg7
F1.8980488777160645
sa(dp71
g2
I01
sg3
I729
sg4
g5
sg6
F16.3005850315094
sg7
F8.240571975708008
sa(dp72
g2
I01
sg3
I889
sg4
g5
sg6
F20.554884910583496
sg7
F2.34061598777771
sa(dp73
g2
I01
sg3
I745
sg4
g5
sg6
F17.48539400100708
sg7
F6.265062093734741
sa(dp74
g2
I01
sg3
I831
sg4
g5
sg6
F18.425594091415405
sg7
F0.9571840763092041
sa(dp75
g2
I01
sg3
I760
sg4
g5
sg6
F16.957046031951904
sg7
F1.1977498531341553
sa(dp76
g2
I01
sg3
I743
sg4
g5
sg6
F16.580156087875366
sg7
F15.276515007019043
sa(dp77
g2
I01
sg3
I694
sg4
g5
sg6
F15.60361909866333
sg7
F2.2003650665283203
sa(dp78
g2
I01
sg3
I733
sg4
g5
sg6
F16.268474102020264
sg7
F7.337346076965332
sa(dp79
g2
I01
sg3
I773
sg4
g5
sg6
F17.131802797317505
sg7
F2.9993460178375244
sa(dp80
g2
I01
sg3
I820
sg4
g5
sg6
F18.16238498687744
sg7
F0.8033449649810791
sa(dp81
g2
I01
sg3
I816
sg4
g5
sg6
F20.217453956604004
sg7
F1.386538028717041
sa(dp82
g2
I01
sg3
I776
sg4
g5
sg6
F18.851781845092773
sg7
F8.150874137878418
sa(dp83
g2
I01
sg3
I751
sg4
g5
sg6
F16.585969924926758
sg7
F3.742993116378784
sa(dp84
g2
I01
sg3
I737
sg4
g5
sg6
F17.26372003555298
sg7
F3.3276619911193848
sa(dp85
g2
I01
sg3
I764
sg4
g5
sg6
F17.627824068069458
sg7
F0.8570971488952637
sa(dp86
g2
I01
sg3
I815
sg4
g5
sg6
F18.157764196395874
sg7
F3.120168924331665
sa(dp87
g2
I01
sg3
I718
sg4
g5
sg6
F15.908388137817383
sg7
F7.288209915161133
sa(dp88
g2
I01
sg3
I839
sg4
g5
sg6
F19.177483081817627
sg7
F1.1669650077819824
sa(dp89
g2
I01
sg3
I736
sg4
g5
sg6
F18.01171612739563
sg7
F7.649374961853027
sa(dp90
g2
I01
sg3
I860
sg4
g5
sg6
F21.304193019866943
sg7
F5.187793016433716
sa(dp91
g2
I01
sg3
I748
sg4
g5
sg6
F16.587887048721313
sg7
F1.056340217590332
sa(dp92
g2
I01
sg3
I694
sg4
g5
sg6
F15.404612064361572
sg7
F1.6235289573669434
sa(dp93
g2
I01
sg3
I743
sg4
g5
sg6
F16.448622941970825
sg7
F12.48927903175354
sa(dp94
g2
I01
sg3
I725
sg4
g5
sg6
F16.13311505317688
sg7
F203.05553221702576
sa(dp95
g2
I01
sg3
I678
sg4
g5
sg6
F15.056699991226196
sg7
F0.7706899642944336
sa(dp96
g2
I01
sg3
I810
sg4
g5
sg6
F19.191495180130005
sg7
F20.88114309310913
sa(dp97
g2
I01
sg3
I711
sg4
g5
sg6
F18.800442934036255
sg7
F11.487184047698975
sa(dp98
g2
I01
sg3
I701
sg4
g5
sg6
F15.482127904891968
sg7
F1.6946969032287598
sa(dp99
g2
I01
sg3
I704
sg4
g5
sg6
F15.664842128753662
sg7
F3.4313409328460693
sa(dp100
g2
I01
sg3
I646
sg4
g5
sg6
F14.230776071548462
sg7
F4.333106994628906
sa(dp101
g2
I01
sg3
I805
sg4
g5
sg6
F17.74983310699463
sg7
F2.3961310386657715
sa(dp102
g2
I01
sg3
I750
sg4
g5
sg6
F16.64617896080017
sg7
F4.723530054092407
sa(dp103
g2
I01
sg3
I764
sg4
g5
sg6
F17.142240047454834
sg7
F1.3705570697784424
sa(dp104
g2
I01
sg3
I751
sg4
g5
sg6
F17.455564975738525
sg7
F1.6315910816192627
sa(dp105
g2
I01
sg3
I783
sg4
g5
sg6
F17.3145170211792
sg7
F6.145482063293457
sa(dp106
g2
I01
sg3
I733
sg4
g5
sg6
F16.524142026901245
sg7
F1.5351181030273438
sa(dp107
g2
I01
sg3
I842
sg4
g5
sg6
F18.538984060287476
sg7
F2.5714659690856934
sa(dp108
g2
I01
sg3
I687
sg4
g5
sg6
F15.142517805099487
sg7
F0.7196400165557861
sa(dp109
g2
I01
sg3
I814
sg4
g5
sg6
F18.22937297821045
sg7
F0.7484090328216553
sa(dp110
g2
I01
sg3
I714
sg4
g5
sg6
F15.708613872528076
sg7
F7.321516990661621
sa(dp111
g2
I01
sg3
I853
sg4
g5
sg6
F19.010676860809326
sg7
F2.427328109741211
sa(dp112
g2
I01
sg3
I734
sg4
g5
sg6
F18.675456047058105
sg7
F1.8357188701629639
sa(dp113
g2
I01
sg3
I770
sg4
g5
sg6
F17.728639125823975
sg7
F1.5275280475616455
sa(dp114
g2
I01
sg3
I869
sg4
g5
sg6
F19.303061962127686
sg7
F4.168641090393066
sa(dp115
g2
I01
sg3
I801
sg4
g5
sg6
F17.690603017807007
sg7
F4.271101951599121
sa(dp116
g2
I01
sg3
I761
sg4
g5
sg6
F18.666882038116455
sg7
F2.613140106201172
sa(dp117
g2
I01
sg3
I834
sg4
g5
sg6
F21.09220004081726
sg7
F1.5057530403137207
sa(dp118
g2
I01
sg3
I719
sg4
g5
sg6
F15.943339824676514
sg7
F3.146497964859009
sa(dp119
g2
I01
sg3
I843
sg4
g5
sg6
F18.730399131774902
sg7
F1.2901129722595215
sa(dp120
g2
I01
sg3
I729
sg4
g5
sg6
F18.44449496269226
sg7
F2.841845989227295
sa(dp121
g2
I01
sg3
I827
sg4
g5
sg6
F18.352576971054077
sg7
F2.391666889190674
sa(dp122
g2
I01
sg3
I868
sg4
g5
sg6
F19.210402965545654
sg7
F0.9890081882476807
sa(dp123
g2
I01
sg3
I793
sg4
g5
sg6
F18.864516973495483
sg7
F1.2808129787445068
sa(dp124
g2
I01
sg3
I817
sg4
g5
sg6
F18.105979204177856
sg7
F4.984519958496094
sa(dp125
g2
I01
sg3
I735
sg4
g5
sg6
F16.20436692237854
sg7
F9.459894180297852
sa(dp126
g2
I01
sg3
I867
sg4
g5
sg6
F19.732680797576904
sg7
F0.9998807907104492
sa(dp127
g2
I01
sg3
I669
sg4
g5
sg6
F17.297234058380127
sg7
F1.2128241062164307
sa(dp128
g2
I01
sg3
I778
sg4
g5
sg6
F18.884800910949707
sg7
F17.520625829696655
sa(dp129
g2
I01
sg3
I671
sg4
g5
sg6
F14.832678079605103
sg7
F1.6917569637298584
sa(dp130
g2
I01
sg3
I795
sg4
g5
sg6
F17.62847399711609
sg7
F1.5466420650482178
sa(dp131
g2
I01
sg3
I783
sg4
g5
sg6
F17.33626890182495
sg7
F4.6667540073394775
sa(dp132
g2
I01
sg3
I813
sg4
g5
sg6
F17.949787855148315
sg7
F2.5360679626464844
sa(dp133
g2
I01
sg3
I803
sg4
g5
sg6
F17.74564504623413
sg7
F1.8654448986053467
sa(dp134
g2
I01
sg3
I722
sg4
g5
sg6
F15.944148063659668
sg7
F2.790437936782837
sa(dp135
g2
I01
sg3
I788
sg4
g5
sg6
F19.729552030563354
sg7
F2.8065950870513916
sa(dp136
g2
I01
sg3
I780
sg4
g5
sg6
F17.243666887283325
sg7
F8.26659083366394
sa(dp137
g2
I01
sg3
I856
sg4
g5
sg6
F19.289157152175903
sg7
F3.308357000350952
sa(dp138
g2
I01
sg3
I839
sg4
g5
sg6
F18.49051284790039
sg7
F2.8467540740966797
sa(dp139
g2
I01
sg3
I728
sg4
g5
sg6
F16.02684998512268
sg7
F3.6570661067962646
sa(dp140
g2
I01
sg3
I695
sg4
g5
sg6
F15.322711944580078
sg7
F0.7711360454559326
sa(dp141
g2
I01
sg3
I733
sg4
g5
sg6
F16.258677005767822
sg7
F6.7514379024505615
sa(dp142
g2
I01
sg3
I716
sg4
g5
sg6
F15.85312795639038
sg7
F2.2838120460510254
sa(dp143
g2
I01
sg3
I852
sg4
g5
sg6
F19.3318350315094
sg7
F4.482690095901489
sa(dp144
g2
I01
sg3
I766
sg4
g5
sg6
F16.969384908676147
sg7
F1.7932610511779785
sa(dp145
g2
I01
sg3
I758
sg4
g5
sg6
F16.886926889419556
sg7
F1.4591901302337646
sa(dp146
g2
I01
sg3
I756
sg4
g5
sg6
F18.38521385192871
sg7
F2.7718491554260254
sa(dp147
g2
I01
sg3
I744
sg4
g5
sg6
F18.88064408302307
sg7
F0.9077999591827393
sa(dp148
g2
I01
sg3
I769
sg4
g5
sg6
F17.066094160079956
sg7
F16.6665780544281
sa(dp149
g2
I01
sg3
I827
sg4
g5
sg6
F18.19029998779297
sg7
F3.013603925704956
sa(dp150
g2
I01
sg3
I872
sg4
g5
sg6
F19.29394817352295
sg7
F3.994046926498413
sa(dp151
g2
I01
sg3
I823
sg4
g5
sg6
F19.048221111297607
sg7
F11.430145978927612
sa(dp152
g2
I01
sg3
I857
sg4
g5
sg6
F19.579381942749023
sg7
F2.6755599975585938
sa(dp153
g2
I01
sg3
I781
sg4
g5
sg6
F17.291068077087402
sg7
F0.9659099578857422
sa(dp154
g2
I01
sg3
I763
sg4
g5
sg6
F16.84155011177063
sg7
F17.252307891845703
sa(dp155
g2
I01
sg3
I741
sg4
g5
sg6
F16.442157983779907
sg7
F24.045732975006104
sa(dp156
g2
I01
sg3
I829
sg4
g5
sg6
F18.36247706413269
sg7
F1.8794760704040527
sa(dp157
g2
I01
sg3
I785
sg4
g5
sg6
F17.4429190158844
sg7
F10.218793869018555
sa(dp158
g2
I01
sg3
I741
sg4
g5
sg6
F16.373342990875244
sg7
F3.5618340969085693
sa(dp159
g2
I01
sg3
I878
sg4
g5
sg6
F19.385880947113037
sg7
F1.1944458484649658
sa(dp160
g2
I01
sg3
I664
sg4
g5
sg6
F14.753697156906128
sg7
F3.6094579696655273
sa(dp161
g2
I01
sg3
I764
sg4
g5
sg6
F16.851756811141968
sg7
F2.6787848472595215
sa(dp162
g2
I01
sg3
I861
sg4
g5
sg6
F19.03278398513794
sg7
F3.1980881690979004
sa(dp163
g2
I01
sg3
I770
sg4
g5
sg6
F16.908936977386475
sg7
F1.2729401588439941
sa(dp164
g2
I01
sg3
I678
sg4
g5
sg6
F16.519126892089844
sg7
F3.881782054901123
sa(dp165
g2
I01
sg3
I756
sg4
g5
sg6
F16.68548583984375
sg7
F3.141818046569824
sa(dp166
g2
I01
sg3
I825
sg4
g5
sg6
F18.213645935058594
sg7
F6.154123067855835
sa(dp167
g2
I01
sg3
I787
sg4
g5
sg6
F17.349667072296143
sg7
F0.9301559925079346
sa(dp168
g2
I01
sg3
I708
sg4
g5
sg6
F15.609673976898193
sg7
F0.791144847869873
sa(dp169
g2
I01
sg3
I831
sg4
g5
sg6
F18.306544065475464
sg7
F0.7353639602661133
sa(dp170
g2
I01
sg3
I720
sg4
g5
sg6
F15.802619218826294
sg7
F6.3649468421936035
sa(dp171
g2
I01
sg3
I747
sg4
g5
sg6
F16.554205894470215
sg7
F5.008903980255127
sa(dp172
g2
I01
sg3
I889
sg4
g5
sg6
F22.284693956375122
sg7
F2.281264066696167
sa(dp173
g2
I01
sg3
I829
sg4
g5
sg6
F18.52497696876526
sg7
F1.5564179420471191
sa(dp174
g2
I01
sg3
I731
sg4
g5
sg6
F16.117580890655518
sg7
F1.1303839683532715
sa(dp175
g2
I01
sg3
I814
sg4
g5
sg6
F17.96221899986267
sg7
F2.6299798488616943
sa(dp176
g2
I01
sg3
I872
sg4
g5
sg6
F19.333686113357544
sg7
F2.9491360187530518
sa(dp177
g2
I01
sg3
I712
sg4
g5
sg6
F16.342818021774292
sg7
F4.482717990875244
sa(dp178
g2
I01
sg3
I798
sg4
g5
sg6
F17.7636559009552
sg7
F0.693108081817627
sa(dp179
g2
I01
sg3
I754
sg4
g5
sg6
F17.094214916229248
sg7
F2.3872478008270264
sa(dp180
g2
I01
sg3
I742
sg4
g5
sg6
F16.282635927200317
sg7
F281.27473616600037
sa(dp181
g2
I01
sg3
I736
sg4
g5
sg6
F16.28361201286316
sg7
F2.065394878387451
sa(dp182
g2
I01
sg3
I747
sg4
g5
sg6
F16.479156017303467
sg7
F12.246894836425781
sa(dp183
g2
I01
sg3
I899
sg4
g5
sg6
F20.5575909614563
sg7
F2.0072100162506104
sa(dp184
g2
I01
sg3
I878
sg4
g5
sg6
F21.7153639793396
sg7
F1.6847450733184814
sa(dp185
g2
I01
sg3
I869
sg4
g5
sg6
F19.19690203666687
sg7
F3.9119551181793213
sa(dp186
g2
I01
sg3
I806
sg4
g5
sg6
F17.715404987335205
sg7
F4.0829620361328125
sa(dp187
g2
I01
sg3
I753
sg4
g5
sg6
F16.528631925582886
sg7
F4.785115003585815
sa(dp188
g2
I01
sg3
I803
sg4
g5
sg6
F17.78228187561035
sg7
F1.4255421161651611
sa(dp189
g2
I01
sg3
I785
sg4
g5
sg6
F19.130796909332275
sg7
F2.1076159477233887
sa(dp190
g2
I01
sg3
I707
sg4
g5
sg6
F15.758205890655518
sg7
F2.52532696723938
sa(dp191
g2
I01
sg3
I720
sg4
g5
sg6
F16.156487941741943
sg7
F49.44521999359131
sa(dp192
g2
I01
sg3
I730
sg4
g5
sg6
F16.04964780807495
sg7
F5.372024059295654
sa(dp193
g2
I01
sg3
I872
sg4
g5
sg6
F19.305488109588623
sg7
F1.4945769309997559
sa(dp194
g2
I01
sg3
I775
sg4
g5
sg6
F19.299566984176636
sg7
F8.011636972427368
sa(dp195
g2
I01
sg3
I727
sg4
g5
sg6
F15.99576187133789
sg7
F1.7370820045471191
sa(dp196
g2
I01
sg3
I798
sg4
g5
sg6
F17.59437608718872
sg7
F4.073122978210449
sa(dp197
g2
I01
sg3
I826
sg4
g5
sg6
F18.237022161483765
sg7
F1.9733538627624512
sa(dp198
g2
I01
sg3
I741
sg4
g5
sg6
F16.367494106292725
sg7
F4.866978883743286
sa(dp199
g2
I01
sg3
I738
sg4
g5
sg6
F16.241692066192627
sg7
F2.7185070514678955
sa(dp200
g2
I01
sg3
I855
sg4
g5
sg6
F20.332515954971313
sg7
F1.4769160747528076
sa(dp201
g2
I01
sg3
I711
sg4
g5
sg6
F15.610268831253052
sg7
F5.971156120300293
sa(dp202
g2
I01
sg3
I793
sg4
g5
sg6
F17.51993203163147
sg7
F20.07465696334839
sa(dp203
g2
I01
sg3
I814
sg4
g5
sg6
F18.066558837890625
sg7
F3.9245731830596924
sa(dp204
g2
I01
sg3
I648
sg4
g5
sg6
F14.324265956878662
sg7
F1.2911169528961182
sa(dp205
g2
I01
sg3
I834
sg4
g5
sg6
F18.409793853759766
sg7
F4.028424024581909
sa(dp206
g2
I01
sg3
I705
sg4
g5
sg6
F15.585448026657104
sg7
F3.2720489501953125
sa(dp207
g2
I01
sg3
I669
sg4
g5
sg6
F14.731317043304443
sg7
F4.557740926742554
sa(dp208
g2
I01
sg3
I674
sg4
g5
sg6
F18.709902048110962
sg7
F1.5540580749511719
sa(dp209
g2
I01
sg3
I715
sg4
g5
sg6
F17.957425117492676
sg7
F5.014141082763672
sa(dp210
g2
I01
sg3
I852
sg4
g5
sg6
F18.785841941833496
sg7
F1.2162458896636963
sa(dp211
g2
I01
sg3
I763
sg4
g5
sg6
F17.5468168258667
sg7
F1.2998480796813965
sa(dp212
g2
I01
sg3
I821
sg4
g5
sg6
F21.701327085494995
sg7
F0.9534530639648438
sa(dp213
g2
I01
sg3
I848
sg4
g5
sg6
F18.677908897399902
sg7
F2.189044952392578
sa(dp214
g2
I01
sg3
I813
sg4
g5
sg6
F18.134624004364014
sg7
F3.309540033340454
sa(dp215
g2
I01
sg3
I882
sg4
g5
sg6
F19.424840927124023
sg7
F4.196275949478149
sa(dp216
g2
I01
sg3
I688
sg4
g5
sg6
F15.163926839828491
sg7
F1.6090338230133057
sa(dp217
g2
I01
sg3
I709
sg4
g5
sg6
F15.610382080078125
sg7
F5.0227370262146
sa(dp218
g2
I01
sg3
I719
sg4
g5
sg6
F15.899642944335938
sg7
F5.235166072845459
sa(dp219
g2
I01
sg3
I706
sg4
g5
sg6
F15.680898904800415
sg7
F22.517539978027344
sa(dp220
g2
I01
sg3
I750
sg4
g5
sg6
F16.6475670337677
sg7
F1.2122559547424316
sa(dp221
g2
I01
sg3
I828
sg4
g5
sg6
F18.569581985473633
sg7
F1.10447096824646
sa(dp222
g2
I01
sg3
I751
sg4
g5
sg6
F19.177018880844116
sg7
F19.33422303199768
sa(dp223
g2
I01
sg3
I720
sg4
g5
sg6
F15.806357145309448
sg7
F4.63423490524292
sa(dp224
g2
I01
sg3
I814
sg4
g5
sg6
F18.070380926132202
sg7
F7.516897916793823
sa(dp225
g2
I01
sg3
I790
sg4
g5
sg6
F17.446829080581665
sg7
F8.91752290725708
sa(dp226
g2
I01
sg3
I840
sg4
g5
sg6
F18.5797860622406
sg7
F1.703193187713623
sa(dp227
g2
I01
sg3
I737
sg4
g5
sg6
F19.906569957733154
sg7
F11.791911125183105
sa(dp228
g2
I01
sg3
I822
sg4
g5
sg6
F18.224053859710693
sg7
F3.4095230102539062
sa(dp229
g2
I01
sg3
I726
sg4
g5
sg6
F17.08709406852722
sg7
F56.77376699447632
sa(dp230
g2
I01
sg3
I788
sg4
g5
sg6
F17.344316959381104
sg7
F0.6034941673278809
sa(dp231
g2
I01
sg3
I680
sg4
g5
sg6
F15.044795989990234
sg7
F0.8362100124359131
sa(dp232
g2
I01
sg3
I720
sg4
g5
sg6
F16.535809993743896
sg7
F3.2755348682403564
sa(dp233
g2
I01
sg3
I863
sg4
g5
sg6
F19.09926986694336
sg7
F9.83957314491272
sa(dp234
g2
I01
sg3
I835
sg4
g5
sg6
F18.361148834228516
sg7
F8.77891993522644
sa(dp235
g2
I01
sg3
I641
sg4
g5
sg6
F17.222245931625366
sg7
F13.090564966201782
sa(dp236
g2
I01
sg3
I705
sg4
g5
sg6
F15.511620998382568
sg7
F4.208676099777222
sa(dp237
g2
I01
sg3
I807
sg4
g5
sg6
F17.85082197189331
sg7
F2.1385598182678223
sa(dp238
g2
I01
sg3
I787
sg4
g5
sg6
F17.347389936447144
sg7
F1.1859900951385498
sa(dp239
g2
I01
sg3
I818
sg4
g5
sg6
F18.048073053359985
sg7
F2.6473069190979004
sa(dp240
g2
I01
sg3
I646
sg4
g5
sg6
F14.231549978256226
sg7
F1.8687078952789307
sa(dp241
g2
I01
sg3
I778
sg4
g5
sg6
F18.529103994369507
sg7
F3.4409120082855225
sa(dp242
g2
I01
sg3
I807
sg4
g5
sg6
F18.6609468460083
sg7
F2.283034086227417
sa(dp243
g2
I01
sg3
I715
sg4
g5
sg6
F17.339989185333252
sg7
F21.208291053771973
sa(dp244
g2
I01
sg3
I748
sg4
g5
sg6
F16.432428121566772
sg7
F9.635931015014648
sa(dp245
g2
I01
sg3
I852
sg4
g5
sg6
F18.797623872756958
sg7
F2.3130810260772705
sa(dp246
g2
I01
sg3
I754
sg4
g5
sg6
F16.666518926620483
sg7
F3.4100921154022217
sa(dp247
g2
I01
sg3
I679
sg4
g5
sg6
F15.00613284111023
sg7
F3.9194931983947754
sa(dp248
g2
I01
sg3
I830
sg4
g5
sg6
F18.341472148895264
sg7
F1.2237029075622559
sa(dp249
g2
I01
sg3
I875
sg4
g5
sg6
F19.705134868621826
sg7
F2.648153066635132
sa(dp250
g2
I01
sg3
I750
sg4
g5
sg6
F16.5060977935791
sg7
F1.5135209560394287
sa(dp251
g2
I01
sg3
I739
sg4
g5
sg6
F16.341486930847168
sg7
F3.5767760276794434
sa(dp252
g2
I01
sg3
I824
sg4
g5
sg6
F18.151681900024414
sg7
F0.7924041748046875
sa(dp253
g2
I01
sg3
I796
sg4
g5
sg6
F17.528127908706665
sg7
F1.9436109066009521
sa(dp254
g2
I01
sg3
I709
sg4
g5
sg6
F15.646891832351685
sg7
F1.131422996520996
sa(dp255
g2
I01
sg3
I775
sg4
g5
sg6
F17.16056799888611
sg7
F1.524165153503418
sa(dp256
g2
I01
sg3
I641
sg4
g5
sg6
F14.123770952224731
sg7
F7.841022968292236
sa(dp257
g2
I01
sg3
I807
sg4
g5
sg6
F17.751325130462646
sg7
F1.1800289154052734
sa(dp258
g2
I01
sg3
I860
sg4
g5
sg6
F19.057554960250854
sg7
F4.590038061141968
sa(dp259
g2
I01
sg3
I724
sg4
g5
sg6
F17.37814497947693
sg7
F4.268304109573364
sa(dp260
g2
I01
sg3
I835
sg4
g5
sg6
F18.930268049240112
sg7
F0.8657841682434082
sa(dp261
g2
I01
sg3
I869
sg4
g5
sg6
F19.226663827896118
sg7
F5.7541069984436035
sa(dp262
g2
I01
sg3
I751
sg4
g5
sg6
F16.57715106010437
sg7
F2.202436923980713
sa(dp263
g2
I01
sg3
I758
sg4
g5
sg6
F16.736186981201172
sg7
F4.555156946182251
sa(dp264
g2
I01
sg3
I778
sg4
g5
sg6
F17.844178915023804
sg7
F7.751489162445068
sa(dp265
g2
I01
sg3
I765
sg4
g5
sg6
F16.86269211769104
sg7
F0.8675379753112793
sa(lp266
(dp267
g7
F3.4241580963134766
sS'check_time'
p268
F0.0003571510314941406
sg6
F3.6879870891571045
sg4
S'rand+cegis'
p269
sS'n_examples_orig'
p270
I154
sg2
I01
sg3
I154
sa(dp271
g7
F0.629094123840332
sg268
F0.00041294097900390625
sg6
F3.8991379737854004
sg4
g269
sg270
I147
sg2
I01
sg3
I147
sa(dp272
g7
F0.5503749847412109
sg268
F0.0005209445953369141
sg6
F4.004625082015991
sg4
g269
sg270
I159
sg2
I01
sg3
I159
sa(dp273
g7
F3.537074089050293
sg268
F0.0004470348358154297
sg6
F3.6424498558044434
sg4
g269
sg270
I143
sg2
I01
sg3
I143
sa(dp274
g7
F2.9742701053619385
sg268
F0.00044918060302734375
sg6
F7.418306112289429
sg4
g269
sg270
I151
sg2
I01
sg3
I151
sa(dp275
g7
F0.459273099899292
sg268
F0.0005841255187988281
sg6
F4.1033830642700195
sg4
g269
sg270
I169
sg2
I01
sg3
I169
sa(dp276
g7
F2.1665451526641846
sg268
F0.0005190372467041016
sg6
F4.169738054275513
sg4
g269
sg270
I172
sg2
I01
sg3
I172
sa(dp277
g7
F1.543483018875122
sg268
F0.0005750656127929688
sg6
F3.6195058822631836
sg4
g269
sg270
I146
sg2
I01
sg3
I146
sa(dp278
g7
F53.80096507072449
sg268
F0.0004930496215820312
sg6
F3.5157740116119385
sg4
g269
sg270
I139
sg2
I01
sg3
I139
sa(dp279
g7
F5.838274002075195
sg268
F0.0004818439483642578
sg6
F4.02233099937439
sg4
g269
sg270
I160
sg2
I01
sg3
I160
sa(dp280
g7
F41.796180725097656
sg268
F0.0009729862213134766
sg6
F4.104933977127075
sg4
g269
sg270
I163
sg2
I01
sg3
I164
sa(dp281
g7
F2.324816942214966
sg268
F0.0004799365997314453
sg6
F4.026082992553711
sg4
g269
sg270
I161
sg2
I01
sg3
I161
sa(dp282
g7
F33.701735973358154
sg268
F0.00040793418884277344
sg6
F3.427933931350708
sg4
g269
sg270
I137
sg2
I01
sg3
I137
sa(dp283
g7
F2.785984992980957
sg268
F0.00047588348388671875
sg6
F3.5287110805511475
sg4
g269
sg270
I141
sg2
I01
sg3
I141
sa(dp284
g7
F0.6307199001312256
sg268
F0.0005338191986083984
sg6
F4.396780014038086
sg4
g269
sg270
I175
sg2
I01
sg3
I175
sa(dp285
g7
F1.931230068206787
sg268
F0.0011501312255859375
sg6
F4.197739839553833
sg4
g269
sg270
I168
sg2
I01
sg3
I169
sa(dp286
g7
F1.5070481300354004
sg268
F0.0005400180816650391
sg6
F3.7108309268951416
sg4
g269
sg270
I148
sg2
I01
sg3
I148
sa(dp287
g7
F142.99871397018433
sg268
F0.002405881881713867
sg6
F3.9469618797302246
sg4
g269
sg270
I157
sg2
I01
sg3
I160
sa(dp288
g7
F93.80652379989624
sg268
F0.0015139579772949219
sg6
F3.702517032623291
sg4
g269
sg270
I148
sg2
I01
sg3
I150
sa(dp289
g7
F2.7468111515045166
sg268
F0.0004780292510986328
sg6
F3.7262279987335205
sg4
g269
sg270
I147
sg2
I01
sg3
I147
sa(dp290
g7
F0.4801819324493408
sg268
F0.0005331039428710938
sg6
F4.138094902038574
sg4
g269
sg270
I166
sg2
I01
sg3
I166
sa(dp291
g7
F4.238491773605347
sg268
F0.0005168914794921875
sg6
F3.8451740741729736
sg4
g269
sg270
I152
sg2
I01
sg3
I152
sa(dp292
g7
F2.9238572120666504
sg268
F0.0005469322204589844
sg6
F3.9827849864959717
sg4
g269
sg270
I160
sg2
I01
sg3
I160
sa(dp293
g7
F5.426514148712158
sg268
F0.0005829334259033203
sg6
F3.950801134109497
sg4
g269
sg270
I158
sg2
I01
sg3
I158
sa(dp294
g7
F497.2737457752228
sg268
F0.005194425582885742
sg6
F3.2081549167633057
sg4
g269
sg270
I128
sg2
I01
sg3
I139
sa(dp295
g7
F0.5767228603363037
sg268
F0.0005719661712646484
sg6
F4.145789861679077
sg4
g269
sg270
I166
sg2
I01
sg3
I166
sa(dp296
g7
F17.62146306037903
sg268
F0.0006041526794433594
sg6
F3.8055388927459717
sg4
g269
sg270
I152
sg2
I01
sg3
I152
sa(dp297
g7
F7.2379631996154785
sg268
F0.0004980564117431641
sg6
F3.662545919418335
sg4
g269
sg270
I148
sg2
I01
sg3
I148
sa(dp298
g7
F78.34308505058289
sg268
F0.0015921592712402344
sg6
F3.2920007705688477
sg4
g269
sg270
I135
sg2
I01
sg3
I137
sa(dp299
g7
F0.31139111518859863
sg268
F0.0005369186401367188
sg6
F3.732487916946411
sg4
g269
sg270
I152
sg2
I01
sg3
I152
sa(dp300
g7
F3.1843461990356445
sg268
F0.0021872520446777344
sg6
F3.652268886566162
sg4
g269
sg270
I148
sg2
I01
sg3
I151
sa(dp301
g7
F0.6420550346374512
sg268
F0.0005869865417480469
sg6
F4.219350814819336
sg4
g269
sg270
I169
sg2
I01
sg3
I169
sa(dp302
g7
F6.12652587890625
sg268
F0.0004699230194091797
sg6
F3.391211986541748
sg4
g269
sg270
I137
sg2
I01
sg3
I137
sa(dp303
g7
F22.848564863204956
sg268
F0.0004911422729492188
sg6
F3.711535930633545
sg4
g269
sg270
I150
sg2
I01
sg3
I150
sa(dp304
g7
F4.921569108963013
sg268
F0.0011301040649414062
sg6
F4.30499005317688
sg4
g269
sg270
I168
sg2
I01
sg3
I169
sa(dp305
g7
F1.286729097366333
sg268
F0.0005061626434326172
sg6
F3.7985150814056396
sg4
g269
sg270
I155
sg2
I01
sg3
I155
sa(dp306
g7
F10.052231073379517
sg268
F0.0005550384521484375
sg6
F4.218274116516113
sg4
g269
sg270
I170
sg2
I01
sg3
I170
sa(dp307
g7
F0.6234989166259766
sg268
F0.00044989585876464844
sg6
F3.193366050720215
sg4
g269
sg270
I135
sg2
I01
sg3
I135
sa(dp308
g7
F1.1504178047180176
sg268
F0.0005438327789306641
sg6
F4.18958592414856
sg4
g269
sg270
I175
sg2
I01
sg3
I175
sa(dp309
g7
F2.2298669815063477
sg268
F0.0007631778717041016
sg6
F3.775860071182251
sg4
g269
sg270
I159
sg2
I01
sg3
I159
sa(dp310
g7
F4.145437002182007
sg268
F0.0005199909210205078
sg6
F3.845184087753296
sg4
g269
sg270
I153
sg2
I01
sg3
I153
sa(dp311
g7
F0.43421506881713867
sg268
F0.0005691051483154297
sg6
F4.055275201797485
sg4
g269
sg270
I171
sg2
I01
sg3
I171
sa(dp312
g7
F2.3968770503997803
sg268
F0.0006570816040039062
sg6
F3.3497841358184814
sg4
g269
sg270
I142
sg2
I01
sg3
I142
sa(dp313
g7
F10.591331958770752
sg268
F0.0005412101745605469
sg6
F3.8235461711883545
sg4
g269
sg270
I160
sg2
I01
sg3
I160
sa(dp314
g7
F2.752830982208252
sg268
F0.0005619525909423828
sg6
F4.145019054412842
sg4
g269
sg270
I174
sg2
I01
sg3
I174
sa(dp315
g7
F2.8353450298309326
sg268
F0.0005769729614257812
sg6
F3.6453042030334473
sg4
g269
sg270
I154
sg2
I01
sg3
I154
sa(dp316
g7
F4.224498987197876
sg268
F0.0012218952178955078
sg6
F3.8495850563049316
sg4
g269
sg270
I162
sg2
I01
sg3
I163
sa(dp317
g7
F2.788411855697632
sg268
F0.0006318092346191406
sg6
F4.9338459968566895
sg4
g269
sg270
I167
sg2
I01
sg3
I167
sa(dp318
g7
F0.5339717864990234
sg268
F0.0004909038543701172
sg6
F3.7149829864501953
sg4
g269
sg270
I156
sg2
I01
sg3
I156
sa(dp319
g7
F0.7733931541442871
sg268
F0.0005280971527099609
sg6
F4.5744850635528564
sg4
g269
sg270
I158
sg2
I01
sg3
I158
sa(dp320
g7
F1.149643898010254
sg268
F0.0005199909210205078
sg6
F3.8010640144348145
sg4
g269
sg270
I155
sg2
I01
sg3
I155
sa(dp321
g7
F2.7208139896392822
sg268
F0.0004980564117431641
sg6
F3.8523330688476562
sg4
g269
sg270
I161
sg2
I01
sg3
I161
sa(dp322
g7
F4.697092056274414
sg268
F0.002802133560180664
sg6
F3.5345709323883057
sg4
g269
sg270
I126
sg2
I01
sg3
I131
sa(dp323
g7
F2.707343101501465
sg268
F0.0005221366882324219
sg6
F3.656670093536377
sg4
g269
sg270
I154
sg2
I01
sg3
I154
sa(dp324
g7
F3.8265039920806885
sg268
F0.003086090087890625
sg6
F4.16182017326355
sg4
g269
sg270
I173
sg2
I01
sg3
I177
sa(dp325
g7
F6.457821846008301
sg268
F0.0005259513854980469
sg6
F3.615877866744995
sg4
g269
sg270
I153
sg2
I01
sg3
I153
sa(dp326
g7
F3.4624500274658203
sg268
F0.00045609474182128906
sg6
F3.7564377784729004
sg4
g269
sg270
I160
sg2
I01
sg3
I160
sa(dp327
g7
F2.49890398979187
sg268
F0.0004508495330810547
sg6
F3.691693067550659
sg4
g269
sg270
I146
sg2
I01
sg3
I146
sa(dp328
g7
F20.41423773765564
sg268
F0.0009829998016357422
sg6
F3.5028369426727295
sg4
g269
sg270
I149
sg2
I01
sg3
I150
sa(dp329
g7
F2.672585964202881
sg268
F0.0004279613494873047
sg6
F3.1955440044403076
sg4
g269
sg270
I143
sg2
I01
sg3
I143
sa(dp330
g7
F1.4174270629882812
sg268
F0.0004639625549316406
sg6
F2.9799320697784424
sg4
g269
sg270
I135
sg2
I01
sg3
I135
sa(dp331
g7
F3.231070041656494
sg268
F0.0006451606750488281
sg6
F3.843583106994629
sg4
g269
sg270
I174
sg2
I01
sg3
I174
sa(dp332
g7
F3.287839889526367
sg268
F0.00045680999755859375
sg6
F3.0294950008392334
sg4
g269
sg270
I137
sg2
I01
sg3
I137
sa(dp333
g7
F6.070383071899414
sg268
F0.0006051063537597656
sg6
F3.5475289821624756
sg4
g269
sg270
I159
sg2
I01
sg3
I159
sa(dp334
g7
F8.77635407447815
sg268
F0.00045609474182128906
sg6
F3.2350220680236816
sg4
g269
sg270
I145
sg2
I01
sg3
I145
sa(dp335
g7
F1.1082921028137207
sg268
F0.0005710124969482422
sg6
F3.9442551136016846
sg4
g269
sg270
I177
sg2
I01
sg3
I177
sa(dp336
g7
F1.163053035736084
sg268
F0.0004839897155761719
sg6
F3.5594329833984375
sg4
g269
sg270
I149
sg2
I01
sg3
I149
sa(dp337
g7
F0.839026927947998
sg268
F0.0005459785461425781
sg6
F3.6539230346679688
sg4
g269
sg270
I166
sg2
I01
sg3
I166
sa(dp338
g7
F1.5267250537872314
sg268
F0.0004620552062988281
sg6
F3.362441062927246
sg4
g269
sg270
I152
sg2
I01
sg3
I152
sa(dp339
g7
F3.10829496383667
sg268
F0.00047779083251953125
sg6
F3.269547939300537
sg4
g269
sg270
I148
sg2
I01
sg3
I148
sa(dp340
g7
F0.24547719955444336
sg268
F0.0004658699035644531
sg6
F6.868510961532593
sg4
g269
sg270
I138
sg2
I01
sg3
I138
sa(dp341
g7
F9.192031145095825
sg268
F0.00043392181396484375
sg6
F3.2234139442443848
sg4
g269
sg270
I146
sg2
I01
sg3
I146
sa(dp342
g7
F2.4519879817962646
sg268
F0.0005159378051757812
sg6
F3.398695945739746
sg4
g269
sg270
I154
sg2
I01
sg3
I154
sa(dp343
g7
F0.6457788944244385
sg268
F0.0005381107330322266
sg6
F3.623525857925415
sg4
g269
sg270
I164
sg2
I01
sg3
I164
sa(dp344
g7
F6.468260049819946
sg268
F0.00048804283142089844
sg6
F3.6373798847198486
sg4
g269
sg270
I163
sg2
I01
sg3
I163
sa(dp345
g7
F21.193779945373535
sg268
F0.0004870891571044922
sg6
F3.4941492080688477
sg4
g269
sg270
I155
sg2
I01
sg3
I155
sa(dp346
g7
F4.561062574386597
sg268
F0.001981973648071289
sg6
F3.3193931579589844
sg4
g269
sg270
I150
sg2
I01
sg3
I153
sa(dp347
g7
F14.851513147354126
sg268
F0.0005018711090087891
sg6
F3.301651954650879
sg4
g269
sg270
I147
sg2
I01
sg3
I147
sa(dp348
g7
F5.613178014755249
sg268
F0.0004818439483642578
sg6
F3.382150888442993
sg4
g269
sg270
I152
sg2
I01
sg3
I152
sa(dp349
g7
F0.27120304107666016
sg268
F0.0004839897155761719
sg6
F3.6101698875427246
sg4
g269
sg270
I163
sg2
I01
sg3
I163
sa(dp350
g7
F35.94943189620972
sg268
F0.0004279613494873047
sg6
F3.1648600101470947
sg4
g269
sg270
I143
sg2
I01
sg3
I143
sa(dp351
g7
F2.0278820991516113
sg268
F0.0022859573364257812
sg6
F3.9362637996673584
sg4
g269
sg270
I167
sg2
I01
sg3
I170
sa(dp352
g7
F1.723301887512207
sg268
F0.0005059242248535156
sg6
F3.4253251552581787
sg4
g269
sg270
I147
sg2
I01
sg3
I147
sa(dp353
g7
F1.5919930934906006
sg268
F0.0005431175231933594
sg6
F3.7891499996185303
sg4
g269
sg270
I172
sg2
I01
sg3
I172
sa(dp354
g7
F3.9512860774993896
sg268
F0.0004999637603759766
sg6
F3.290688991546631
sg4
g269
sg270
I149
sg2
I01
sg3
I149
sa(dp355
g7
F0.3179349899291992
sg268
F0.0004239082336425781
sg6
F3.0466349124908447
sg4
g269
sg270
I138
sg2
I01
sg3
I138
sa(dp356
g7
F69.56232571601868
sg268
F0.002019643783569336
sg6
F3.2859129905700684
sg4
g269
sg270
I148
sg2
I01
sg3
I151
sa(dp357
g7
F127.42088603973389
sg268
F0.0004620552062988281
sg6
F3.2864460945129395
sg4
g269
sg270
I145
sg2
I01
sg3
I145
sa(dp358
g7
F0.5989470481872559
sg268
F0.00042819976806640625
sg6
F2.9783260822296143
sg4
g269
sg270
I135
sg2
I01
sg3
I135
sa(dp359
g7
F15.653894901275635
sg268
F0.0005278587341308594
sg6
F3.5751850605010986
sg4
g269
sg270
I162
sg2
I01
sg3
I162
sa(dp360
g7
F118.68323373794556
sg268
F0.0009958744049072266
sg6
F3.178420066833496
sg4
g269
sg270
I142
sg2
I01
sg3
I143
sa(dp361
g7
F62.15856194496155
sg268
F0.0008819103240966797
sg6
F3.089046001434326
sg4
g269
sg270
I140
sg2
I01
sg3
I141
sa(dp362
g7
F14.92307996749878
sg268
F0.0004730224609375
sg6
F3.09802508354187
sg4
g269
sg270
I140
sg2
I01
sg3
I140
sa(dp363
g7
F166.66504216194153
sg268
F0.001628875732421875
sg6
F2.8409478664398193
sg4
g269
sg270
I129
sg2
I01
sg3
I132
sa(dp364
g7
F2.1930580139160156
sg268
F0.0005118846893310547
sg6
F3.537513017654419
sg4
g269
sg270
I161
sg2
I01
sg3
I161
sa(dp365
g7
F4.4619879722595215
sg268
F0.00049591064453125
sg6
F3.354556083679199
sg4
g269
sg270
I150
sg2
I01
sg3
I150
sa(dp366
g7
F23.846909761428833
sg268
F0.0009577274322509766
sg6
F3.4600701332092285
sg4
g269
sg270
I152
sg2
I01
sg3
I153
sa(dp367
g7
F0.9952859878540039
sg268
F0.0005300045013427734
sg6
F3.5576579570770264
sg4
g269
sg270
I150
sg2
I01
sg3
I150
sa(dp368
g7
F0.25279688835144043
sg268
F0.0004940032958984375
sg6
F3.4200198650360107
sg4
g269
sg270
I156
sg2
I01
sg3
I156
sa(dp369
g7
F14.124143123626709
sg268
F0.0005240440368652344
sg6
F3.226989984512329
sg4
g269
sg270
I146
sg2
I01
sg3
I146
sa(dp370
g7
F3.055043935775757
sg268
F0.0011472702026367188
sg6
F3.684235095977783
sg4
g269
sg270
I168
sg2
I01
sg3
I169
sa(dp371
g7
F2.212502956390381
sg268
F0.0004420280456542969
sg6
F3.039742946624756
sg4
g269
sg270
I137
sg2
I01
sg3
I137
sa(dp372
g7
F1.1456398963928223
sg268
F0.0005538463592529297
sg6
F3.590416193008423
sg4
g269
sg270
I162
sg2
I01
sg3
I162
sa(dp373
g7
F9.395210981369019
sg268
F0.0004489421844482422
sg6
F3.125840902328491
sg4
g269
sg270
I142
sg2
I01
sg3
I142
sa(dp374
g7
F1.387186050415039
sg268
F0.0005609989166259766
sg6
F3.7404420375823975
sg4
g269
sg270
I170
sg2
I01
sg3
I170
sa(dp375
g7
F0.9681899547576904
sg268
F0.0005369186401367188
sg6
F3.3256540298461914
sg4
g269
sg270
I146
sg2
I01
sg3
I146
sa(dp376
g7
F5.797544002532959
sg268
F0.0004601478576660156
sg6
F3.4242970943450928
sg4
g269
sg270
I154
sg2
I01
sg3
I154
sa(dp377
g7
F8.781823873519897
sg268
F0.002282857894897461
sg6
F3.903172016143799
sg4
g269
sg270
I173
sg2
I01
sg3
I176
sa(dp378
g7
F6.051447153091431
sg268
F0.0005328655242919922
sg6
F3.530416965484619
sg4
g269
sg270
I160
sg2
I01
sg3
I160
sa(dp379
g7
F1.174144983291626
sg268
F0.00047707557678222656
sg6
F3.340378999710083
sg4
g269
sg270
I152
sg2
I01
sg3
I152
sa(dp380
g7
F1.626910924911499
sg268
F0.0005521774291992188
sg6
F3.6513638496398926
sg4
g269
sg270
I166
sg2
I01
sg3
I166
sa(dp381
g7
F6.805190086364746
sg268
F0.0004949569702148438
sg6
F3.1339480876922607
sg4
g269
sg270
I143
sg2
I01
sg3
I143
sa(dp382
g7
F0.843238115310669
sg268
F0.0005300045013427734
sg6
F3.7257940769195557
sg4
g269
sg270
I168
sg2
I01
sg3
I168
sa(dp383
g7
F7.4583330154418945
sg268
F0.0004642009735107422
sg6
F3.199897050857544
sg4
g269
sg270
I145
sg2
I01
sg3
I145
sa(dp384
g7
F4.8046650886535645
sg268
F0.000514984130859375
sg6
F3.671236991882324
sg4
g269
sg270
I165
sg2
I01
sg3
I165
sa(dp385
g7
F6.709829092025757
sg268
F0.0018229484558105469
sg6
F3.912968873977661
sg4
g269
sg270
I173
sg2
I01
sg3
I175
sa(dp386
g7
F1.2583081722259521
sg268
F0.0005400180816650391
sg6
F3.4694628715515137
sg4
g269
sg270
I158
sg2
I01
sg3
I158
sa(dp387
g7
F1.8830640316009521
sg268
F0.0005381107330322266
sg6
F3.570357084274292
sg4
g269
sg270
I163
sg2
I01
sg3
I163
sa(dp388
g7
F0.3166239261627197
sg268
F0.0004620552062988281
sg6
F3.4094810485839844
sg4
g269
sg270
I147
sg2
I01
sg3
I147
sa(dp389
g7
F0.334885835647583
sg268
F0.0005528926849365234
sg6
F4.007587909698486
sg4
g269
sg270
I173
sg2
I01
sg3
I173
sa(dp390
g7
F1.3922700881958008
sg268
F0.0008990764617919922
sg6
F2.9269559383392334
sg4
g269
sg270
I133
sg2
I01
sg3
I134
sa(dp391
g7
F21.973695755004883
sg268
F0.0015637874603271484
sg6
F3.4313549995422363
sg4
g269
sg270
I155
sg2
I01
sg3
I157
sa(dp392
g7
F7.066462278366089
sg268
F0.0008988380432128906
sg6
F2.943444013595581
sg4
g269
sg270
I134
sg2
I01
sg3
I135
sa(dp393
g7
F3.9447319507598877
sg268
F0.0005888938903808594
sg6
F3.506622076034546
sg4
g269
sg270
I159
sg2
I01
sg3
I159
sa(dp394
g7
F2.2446529865264893
sg268
F0.00048279762268066406
sg6
F3.4354898929595947
sg4
g269
sg270
I156
sg2
I01
sg3
I156
sa(dp395
g7
F6.0031349658966064
sg268
F0.0004990100860595703
sg6
F3.561522960662842
sg4
g269
sg270
I162
sg2
I01
sg3
I162
sa(dp396
g7
F0.9298751354217529
sg268
F0.0004799365997314453
sg6
F3.523369073867798
sg4
g269
sg270
I160
sg2
I01
sg3
I160
sa(dp397
g7
F0.8177409172058105
sg268
F0.00045609474182128906
sg6
F3.1800849437713623
sg4
g269
sg270
I144
sg2
I01
sg3
I144
sa(dp398
g7
F1.8774678707122803
sg268
F0.0005879402160644531
sg6
F3.468019962310791
sg4
g269
sg270
I157
sg2
I01
sg3
I157
sa(dp399
g7
F6.055840969085693
sg268
F0.0005209445953369141
sg6
F3.4549238681793213
sg4
g269
sg270
I156
sg2
I01
sg3
I156
sa(dp400
g7
F0.2665388584136963
sg268
F0.0005450248718261719
sg6
F3.7805349826812744
sg4
g269
sg270
I171
sg2
I01
sg3
I171
sa(dp401
g7
F6.618917942047119
sg268
F0.0005400180816650391
sg6
F3.7485198974609375
sg4
g269
sg270
I167
sg2
I01
sg3
I167
sa(dp402
g7
F8.475106000900269
sg268
F0.0005221366882324219
sg6
F3.2053050994873047
sg4
g269
sg270
I145
sg2
I01
sg3
I145
sa(dp403
g7
F0.312575101852417
sg268
F0.0004210472106933594
sg6
F3.0652310848236084
sg4
g269
sg270
I139
sg2
I01
sg3
I139
sa(dp404
g7
F21.385921001434326
sg268
F0.0004401206970214844
sg6
F3.330615997314453
sg4
g269
sg270
I146
sg2
I01
sg3
I146
sa(dp405
g7
F2.9308760166168213
sg268
F0.000431060791015625
sg6
F3.1596498489379883
sg4
g269
sg270
I143
sg2
I01
sg3
I143
sa(dp406
g7
F1.493453025817871
sg268
F0.0005438327789306641
sg6
F3.8888628482818604
sg4
g269
sg270
I170
sg2
I01
sg3
I170
sa(dp407
g7
F19.38613796234131
sg268
F0.0005900859832763672
sg6
F3.3771021366119385
sg4
g269
sg270
I153
sg2
I01
sg3
I153
sa(dp408
g7
F1.027195930480957
sg268
F0.0004630088806152344
sg6
F3.3427228927612305
sg4
g269
sg270
I151
sg2
I01
sg3
I151
sa(dp409
g7
F6.433377981185913
sg268
F0.0005960464477539062
sg6
F3.3234949111938477
sg4
g269
sg270
I151
sg2
I01
sg3
I151
sa(dp410
g7
F33.32933211326599
sg268
F0.0014650821685791016
sg6
F3.2698230743408203
sg4
g269
sg270
I148
sg2
I01
sg3
I150
sa(dp411
g7
F0.18544507026672363
sg268
F0.0008690357208251953
sg6
F3.4100279808044434
sg4
g269
sg270
I153
sg2
I01
sg3
I153
sa(dp412
g7
F0.6648259162902832
sg268
F0.0005090236663818359
sg6
F3.66377592086792
sg4
g269
sg270
I165
sg2
I01
sg3
I165
sa(dp413
g7
F0.8750371932983398
sg268
F0.0005309581756591797
sg6
F3.812187910079956
sg4
g269
sg270
I174
sg2
I01
sg3
I174
sa(dp414
g7
F0.38700199127197266
sg268
F0.0005371570587158203
sg6
F3.627803087234497
sg4
g269
sg270
I164
sg2
I01
sg3
I164
sa(dp415
g7
F2.749202013015747
sg268
F0.0005359649658203125
sg6
F3.7998340129852295
sg4
g269
sg270
I171
sg2
I01
sg3
I171
sa(dp416
g7
F6.3701629638671875
sg268
F0.0005559921264648438
sg6
F3.44207501411438
sg4
g269
sg270
I156
sg2
I01
sg3
I156
sa(dp417
g7
F10.674978017807007
sg268
F0.0005199909210205078
sg6
F3.3890528678894043
sg4
g269
sg270
I152
sg2
I01
sg3
I152
sa(dp418
g7
F3.380234956741333
sg268
F0.000492095947265625
sg6
F3.2617931365966797
sg4
g269
sg270
I148
sg2
I01
sg3
I148
sa(dp419
g7
F89.82220029830933
sg268
F0.0017206668853759766
sg6
F3.650175094604492
sg4
g269
sg270
I165
sg2
I01
sg3
I167
sa(dp420
g7
F6.455364942550659
sg268
F0.0005991458892822266
sg6
F3.4699149131774902
sg4
g269
sg270
I157
sg2
I01
sg3
I157
sa(dp421
g7
F24.891202211380005
sg268
F0.00045800209045410156
sg6
F3.24188494682312
sg4
g269
sg270
I148
sg2
I01
sg3
I148
sa(dp422
g7
F0.6288261413574219
sg268
F0.0005800724029541016
sg6
F3.860628843307495
sg4
g269
sg270
I175
sg2
I01
sg3
I175
sa(dp423
g7
F3.567479133605957
sg268
F0.00039696693420410156
sg6
F2.8889081478118896
sg4
g269
sg270
I132
sg2
I01
sg3
I132
sa(dp424
g7
F0.6597518920898438
sg268
F0.0004520416259765625
sg6
F3.516855001449585
sg4
g269
sg270
I152
sg2
I01
sg3
I152
sa(dp425
g7
F0.7127480506896973
sg268
F0.0005710124969482422
sg6
F3.777791976928711
sg4
g269
sg270
I172
sg2
I01
sg3
I172
sa(dp426
g7
F0.5690140724182129
sg268
F0.00047016143798828125
sg6
F3.398353099822998
sg4
g269
sg270
I154
sg2
I01
sg3
I154
sa(dp427
g7
F11.709642171859741
sg268
F0.0004730224609375
sg6
F2.982612133026123
sg4
g269
sg270
I135
sg2
I01
sg3
I135
sa(dp428
g7
F1.004667043685913
sg268
F0.0006079673767089844
sg6
F3.305176019668579
sg4
g269
sg270
I151
sg2
I01
sg3
I151
sa(dp429
g7
F4.677612066268921
sg268
F0.0005140304565429688
sg6
F3.6232779026031494
sg4
g269
sg270
I165
sg2
I01
sg3
I165
sa(dp430
g7
F9.158923149108887
sg268
F0.000537872314453125
sg6
F3.4524550437927246
sg4
g269
sg270
I157
sg2
I01
sg3
I157
sa(dp431
g7
F1.604344129562378
sg268
F0.0004649162292480469
sg6
F3.149317979812622
sg4
g269
sg270
I141
sg2
I01
sg3
I141
sa(dp432
g7
F1.6094930171966553
sg268
F0.0006120204925537109
sg6
F3.6701769828796387
sg4
g269
sg270
I166
sg2
I01
sg3
I166
sa(dp433
g7
F163.17300701141357
sg268
F0.0014753341674804688
sg6
F3.159770965576172
sg4
g269
sg270
I144
sg2
I01
sg3
I146
sa(dp434
g7
F3.7848029136657715
sg268
F0.0005240440368652344
sg6
F3.3047749996185303
sg4
g269
sg270
I149
sg2
I01
sg3
I149
sa(dp435
g7
F0.622952938079834
sg268
F0.0005578994750976562
sg6
F3.8736441135406494
sg4
g269
sg270
I177
sg2
I01
sg3
I177
sa(dp436
g7
F0.7750561237335205
sg268
F0.0005459785461425781
sg6
F3.673002004623413
sg4
g269
sg270
I165
sg2
I01
sg3
I165
sa(dp437
g7
F36.61467218399048
sg268
F0.0010290145874023438
sg6
F3.2078969478607178
sg4
g269
sg270
I146
sg2
I01
sg3
I147
sa(dp438
g7
F0.7252540588378906
sg268
F0.0005118846893310547
sg6
F3.5636069774627686
sg4
g269
sg270
I162
sg2
I01
sg3
I162
sa(dp439
g7
F4.054731845855713
sg268
F0.0005400180816650391
sg6
F3.8730149269104004
sg4
g269
sg270
I174
sg2
I01
sg3
I174
sa(dp440
g7
F39.18285298347473
sg268
F0.0004911422729492188
sg6
F3.1712090969085693
sg4
g269
sg270
I142
sg2
I01
sg3
I142
sa(dp441
g7
F4.873570919036865
sg268
F0.0005061626434326172
sg6
F3.50447416305542
sg4
g269
sg270
I159
sg2
I01
sg3
I159
sa(dp442
g7
F0.178422212600708
sg268
F0.0005559921264648438
sg6
F3.3285558223724365
sg4
g269
sg270
I150
sg2
I01
sg3
I150
sa(dp443
g7
F21.686161994934082
sg268
F0.0004961490631103516
sg6
F3.247387170791626
sg4
g269
sg270
I148
sg2
I01
sg3
I148
sa(dp444
g7
F13.100899934768677
sg268
F0.0004680156707763672
sg6
F3.285335063934326
sg4
g269
sg270
I147
sg2
I01
sg3
I147
sa(dp445
g7
F8.897228002548218
sg268
F0.0004990100860595703
sg6
F3.3413660526275635
sg4
g269
sg270
I149
sg2
I01
sg3
I149
sa(dp446
g7
F3.5489749908447266
sg268
F0.0005559921264648438
sg6
F3.9502789974212646
sg4
g269
sg270
I179
sg2
I01
sg3
I179
sa(dp447
g7
F1.8556649684906006
sg268
F0.0005660057067871094
sg6
F3.848098039627075
sg4
g269
sg270
I175
sg2
I01
sg3
I175
sa(dp448
g7
F5.526432991027832
sg268
F0.0005199909210205078
sg6
F3.8253040313720703
sg4
g269
sg270
I173
sg2
I01
sg3
I173
sa(dp449
g7
F2.3069088459014893
sg268
F0.0005071163177490234
sg6
F3.538158893585205
sg4
g269
sg270
I161
sg2
I01
sg3
I161
sa(dp450
g7
F0.5581779479980469
sg268
F0.0004718303680419922
sg6
F3.2905900478363037
sg4
g269
sg270
I150
sg2
I01
sg3
I150
sa(dp451
g7
F3.5198159217834473
sg268
F0.0011510848999023438
sg6
F3.5356061458587646
sg4
g269
sg270
I160
sg2
I01
sg3
I161
sa(dp452
g7
F6.836683034896851
sg268
F0.0005071163177490234
sg6
F3.4617459774017334
sg4
g269
sg270
I157
sg2
I01
sg3
I157
sa(dp453
g7
F16.93727993965149
sg268
F0.0004820823669433594
sg6
F3.3100168704986572
sg4
g269
sg270
I141
sg2
I01
sg3
I141
sa(dp454
g7
F31.769322156906128
sg268
F0.0004570484161376953
sg6
F3.185034990310669
sg4
g269
sg270
I144
sg2
I01
sg3
I144
sa(dp455
g7
F2.8333208560943604
sg268
F0.0005171298980712891
sg6
F3.2553629875183105
sg4
g269
sg270
I146
sg2
I01
sg3
I146
sa(dp456
g7
F0.21868014335632324
sg268
F0.00055694580078125
sg6
F3.8380520343780518
sg4
g269
sg270
I174
sg2
I01
sg3
I174
sa(dp457
g7
F16.158185958862305
sg268
F0.0004711151123046875
sg6
F3.4598259925842285
sg4
g269
sg270
I155
sg2
I01
sg3
I155
sa(dp458
g7
F0.3120400905609131
sg268
F0.0004940032958984375
sg6
F3.1901659965515137
sg4
g269
sg270
I145
sg2
I01
sg3
I145
sa(dp459
g7
F15.904340028762817
sg268
F0.0005400180816650391
sg6
F3.4865658283233643
sg4
g269
sg270
I159
sg2
I01
sg3
I159
sa(dp460
g7
F2.4629950523376465
sg268
F0.0005369186401367188
sg6
F3.620516777038574
sg4
g269
sg270
I165
sg2
I01
sg3
I165
sa(dp461
g7
F0.9427671432495117
sg268
F0.00046896934509277344
sg6
F3.7291688919067383
sg4
g269
sg270
I148
sg2
I01
sg3
I148
sa(dp462
g7
F1.6740469932556152
sg268
F0.00048089027404785156
sg6
F3.223223924636841
sg4
g269
sg270
I147
sg2
I01
sg3
I147
sa(dp463
g7
F1.5906388759613037
sg268
F0.0005578994750976562
sg6
F3.8113389015197754
sg4
g269
sg270
I171
sg2
I01
sg3
I171
sa(dp464
g7
F21.948001861572266
sg268
F0.0004661083221435547
sg6
F3.1699957847595215
sg4
g269
sg270
I142
sg2
I01
sg3
I142
sa(dp465
g7
F241.00865006446838
sg268
F0.0011548995971679688
sg6
F3.4830641746520996
sg4
g269
sg270
I158
sg2
I01
sg3
I159
sa(dp466
g7
F2.4441239833831787
sg268
F0.0004961490631103516
sg6
F3.560798168182373
sg4
g269
sg270
I162
sg2
I01
sg3
I162
sa(dp467
g7
F0.4257190227508545
sg268
F0.00041604042053222656
sg6
F2.832441806793213
sg4
g269
sg270
I129
sg2
I01
sg3
I129
sa(dp468
g7
F2.096791982650757
sg268
F0.0005311965942382812
sg6
F3.6495890617370605
sg4
g269
sg270
I166
sg2
I01
sg3
I166
sa(dp469
g7
F5.692698001861572
sg268
F0.0004799365997314453
sg6
F3.101191997528076
sg4
g269
sg270
I141
sg2
I01
sg3
I141
sa(dp470
g7
F3.260244131088257
sg268
F0.00041103363037109375
sg6
F2.9295270442962646
sg4
g269
sg270
I133
sg2
I01
sg3
I133
sa(dp471
g7
F0.5828120708465576
sg268
F0.00043392181396484375
sg6
F2.9629440307617188
sg4
g269
sg270
I134
sg2
I01
sg3
I134
sa(dp472
g7
F19.4612238407135
sg268
F0.0005559921264648438
sg6
F3.144496202468872
sg4
g269
sg270
I143
sg2
I01
sg3
I143
sa(dp473
g7
F0.41197991371154785
sg268
F0.000698089599609375
sg6
F3.779326915740967
sg4
g269
sg270
I170
sg2
I01
sg3
I170
sa(dp474
g7
F0.3547241687774658
sg268
F0.0005919933319091797
sg6
F3.4205758571624756
sg4
g269
sg270
I152
sg2
I01
sg3
I152
sa(dp475
g7
F1.9819042682647705
sg268
F0.0016169548034667969
sg6
F3.6279051303863525
sg4
g269
sg270
I164
sg2
I01
sg3
I166
sa(dp476
g7
F0.61326003074646
sg268
F0.0004870891571044922
sg6
F3.705475091934204
sg4
g269
sg270
I169
sg2
I01
sg3
I169
sa(dp477
g7
F1.2739019393920898
sg268
F0.0006310939788818359
sg6
F3.589545965194702
sg4
g269
sg270
I162
sg2
I01
sg3
I162
sa(dp478
g7
F13.32877492904663
sg268
F0.0023298263549804688
sg6
F3.882460117340088
sg4
g269
sg270
I176
sg2
I01
sg3
I179
sa(dp479
g7
F13.758628845214844
sg268
F0.0004169940948486328
sg6
F3.020599842071533
sg4
g269
sg270
I137
sg2
I01
sg3
I137
sa(dp480
g7
F3.475295066833496
sg268
F0.00043201446533203125
sg6
F3.1016671657562256
sg4
g269
sg270
I141
sg2
I01
sg3
I141
sa(dp481
g7
F56.856770038604736
sg268
F0.0010030269622802734
sg6
F3.1453018188476562
sg4
g269
sg270
I143
sg2
I01
sg3
I144
sa(dp482
g7
F6.179705858230591
sg268
F0.00043392181396484375
sg6
F3.112886905670166
sg4
g269
sg270
I141
sg2
I01
sg3
I141
sa(dp483
g7
F2.3493311405181885
sg268
F0.0004990100860595703
sg6
F3.4551351070404053
sg4
g269
sg270
I150
sg2
I01
sg3
I150
sa(dp484
g7
F0.18062996864318848
sg268
F0.0005459785461425781
sg6
F3.636441946029663
sg4
g269
sg270
I165
sg2
I01
sg3
I165
sa(dp485
g7
F17.039201974868774
sg268
F0.0005509853363037109
sg6
F3.305572986602783
sg4
g269
sg270
I150
sg2
I01
sg3
I150
sa(dp486
g7
F1.2412469387054443
sg268
F0.0004811286926269531
sg6
F3.2136449813842773
sg4
g269
sg270
I144
sg2
I01
sg3
I144
sa(dp487
g7
F9.496320962905884
sg268
F0.0005030632019042969
sg6
F3.5827369689941406
sg4
g269
sg270
I162
sg2
I01
sg3
I162
sa(dp488
g7
F0.8988380432128906
sg268
F0.0005319118499755859
sg6
F3.4648351669311523
sg4
g269
sg270
I158
sg2
I01
sg3
I158
sa(dp489
g7
F0.7608768939971924
sg268
F0.0005359649658203125
sg6
F3.7126901149749756
sg4
g269
sg270
I168
sg2
I01
sg3
I168
sa(dp490
g7
F1.0647680759429932
sg268
F0.0005099773406982422
sg6
F3.2231009006500244
sg4
g269
sg270
I147
sg2
I01
sg3
I147
sa(dp491
g7
F1.875472068786621
sg268
F0.0006270408630371094
sg6
F3.6667351722717285
sg4
g269
sg270
I164
sg2
I01
sg3
I164
sa(dp492
g7
F12.018440008163452
sg268
F0.0005209445953369141
sg6
F3.2059998512268066
sg4
g269
sg270
I145
sg2
I01
sg3
I145
sa(dp493
g7
F2.076719045639038
sg268
F0.0004918575286865234
sg6
F3.45687198638916
sg4
g269
sg270
I157
sg2
I01
sg3
I157
sa(dp494
g7
F0.38926005363464355
sg268
F0.00043201446533203125
sg6
F3.0058908462524414
sg4
g269
sg270
I136
sg2
I01
sg3
I136
sa(dp495
g7
F7.509508848190308
sg268
F0.0004899501800537109
sg6
F3.151901960372925
sg4
g269
sg270
I144
sg2
I01
sg3
I144
sa(dp496
g7
F0.2918660640716553
sg268
F0.0005860328674316406
sg6
F3.7991960048675537
sg4
g269
sg270
I172
sg2
I01
sg3
I172
sa(dp497
g7
F1.013273000717163
sg268
F0.0005590915679931641
sg6
F3.6657769680023193
sg4
g269
sg270
I167
sg2
I01
sg3
I167
sa(dp498
g7
F58.125882387161255
sg268
F0.0008497238159179688
sg6
F2.803630828857422
sg4
g269
sg270
I128
sg2
I01
sg3
I129
sa(dp499
g7
F21.787636041641235
sg268
F0.0014557838439941406
sg6
F3.142289876937866
sg4
g269
sg270
I141
sg2
I01
sg3
I143
sa(dp500
g7
F1.056541919708252
sg268
F0.0005450248718261719
sg6
F3.558852195739746
sg4
g269
sg270
I161
sg2
I01
sg3
I161
sa(dp501
g7
F6.560441970825195
sg268
F0.00057220458984375
sg6
F3.458587169647217
sg4
g269
sg270
I157
sg2
I01
sg3
I157
sa(dp502
g7
F1.4175639152526855
sg268
F0.0004990100860595703
sg6
F3.575234889984131
sg4
g269
sg270
I163
sg2
I01
sg3
I163
sa(dp503
g7
F0.772874116897583
sg268
F0.0004830360412597656
sg6
F2.8442130088806152
sg4
g269
sg270
I129
sg2
I01
sg3
I129
sa(dp504
g7
F0.3605031967163086
sg268
F0.0004909038543701172
sg6
F3.4653398990631104
sg4
g269
sg270
I155
sg2
I01
sg3
I155
sa(dp505
g7
F6.514254093170166
sg268
F0.0005629062652587891
sg6
F3.5281341075897217
sg4
g269
sg270
I161
sg2
I01
sg3
I161
sa(dp506
g7
F58.18030905723572
sg268
F0.0004911422729492188
sg6
F3.147922992706299
sg4
g269
sg270
I143
sg2
I01
sg3
I143
sa(dp507
g7
F9.662437915802002
sg268
F0.00045418739318847656
sg6
F3.2725651264190674
sg4
g269
sg270
I149
sg2
I01
sg3
I149
sa(dp508
g7
F4.0835771560668945
sg268
F0.0005719661712646484
sg6
F3.7311320304870605
sg4
g269
sg270
I170
sg2
I01
sg3
I170
sa(dp509
g7
F0.60418701171875
sg268
F0.0006198883056640625
sg6
F3.2885959148406982
sg4
g269
sg270
I150
sg2
I01
sg3
I150
sa(dp510
g7
F9.801918029785156
sg268
F0.0004360675811767578
sg6
F2.9735281467437744
sg4
g269
sg270
I135
sg2
I01
sg3
I135
sa(dp511
g7
F1.1724061965942383
sg268
F0.0005419254302978516
sg6
F3.684735059738159
sg4
g269
sg270
I166
sg2
I01
sg3
I166
sa(dp512
g7
F4.2831947803497314
sg268
F0.0018000602722167969
sg6
F3.85030198097229
sg4
g269
sg270
I175
sg2
I01
sg3
I177
sa(dp513
g7
F39.06815195083618
sg268
F0.0004949569702148438
sg6
F3.3092081546783447
sg4
g269
sg270
I150
sg2
I01
sg3
I150
sa(dp514
g7
F0.6861798763275146
sg268
F0.0004458427429199219
sg6
F3.248382091522217
sg4
g269
sg270
I147
sg2
I01
sg3
I147
sa(dp515
g7
F5.051776885986328
sg268
F0.001753091812133789
sg6
F3.6048648357391357
sg4
g269
sg270
I164
sg2
I01
sg3
I166
sa(dp516
g7
F4.82982611656189
sg268
F0.0005440711975097656
sg6
F3.5058889389038086
sg4
g269
sg270
I159
sg2
I01
sg3
I159
sa(dp517
g7
F1.0637578964233398
sg268
F0.0004432201385498047
sg6
F3.100023031234741
sg4
g269
sg270
I141
sg2
I01
sg3
I141
sa(dp518
g7
F1.4233009815216064
sg268
F0.0006859302520751953
sg6
F3.4082319736480713
sg4
g269
sg270
I155
sg2
I01
sg3
I155
sa(dp519
g7
F81.69565677642822
sg268
F0.0009291172027587891
sg6
F2.810710906982422
sg4
g269
sg270
I128
sg2
I01
sg3
I129
sa(dp520
g7
F13.18874979019165
sg268
F0.000537872314453125
sg6
F3.5305540561676025
sg4
g269
sg270
I161
sg2
I01
sg3
I161
sa(dp521
g7
F6.977015018463135
sg268
F0.0005609989166259766
sg6
F3.8054981231689453
sg4
g269
sg270
I172
sg2
I01
sg3
I172
sa(dp522
g7
F24.961244106292725
sg268
F0.00042700767517089844
sg6
F3.159327983856201
sg4
g269
sg270
I144
sg2
I01
sg3
I144
sa(dp523
g7
F0.21962308883666992
sg268
F0.0005459785461425781
sg6
F3.9570350646972656
sg4
g269
sg270
I167
sg2
I01
sg3
I167
sa(dp524
g7
F0.9747910499572754
sg268
F0.0005671977996826172
sg6
F3.8008060455322266
sg4
g269
sg270
I173
sg2
I01
sg3
I173
sa(dp525
g7
F5.244600057601929
sg268
F0.0004520416259765625
sg6
F3.3057730197906494
sg4
g269
sg270
I150
sg2
I01
sg3
I150
sa(dp526
g7
F13.930938959121704
sg268
F0.000514984130859375
sg6
F3.3128859996795654
sg4
g269
sg270
I151
sg2
I01
sg3
I151
sa(dp527
g7
F1.5712978839874268
sg268
F0.0004999637603759766
sg6
F3.411511182785034
sg4
g269
sg270
I155
sg2
I01
sg3
I155
sa(dp528
g7
F1.4622771739959717
sg268
F0.0020737648010253906
sg6
F3.4133670330047607
sg4
g269
sg270
I153
sg2
I01
sg3
I156
sa(lp529
(dp530
g7
F8.27336311340332
sg268
F0.0003750324249267578
sg6
F3.923614025115967
sg4
S'h1+cegis'
p531
sg270
I164
sg2
I01
sg3
I164
sa(dp532
g7
F4.053544998168945
sg268
F0.0003981590270996094
sg6
F4.678377866744995
sg4
g531
sg270
I185
sg2
I01
sg3
I185
sa(dp533
g7
F1.4858429431915283
sg268
F0.0004119873046875
sg6
F2.7387218475341797
sg4
g531
sg270
I106
sg2
I01
sg3
I106
sa(dp534
g7
F0.5582180023193359
sg268
F0.00040984153747558594
sg6
F6.371012926101685
sg4
g531
sg270
I266
sg2
I01
sg3
I266
sa(dp535
g7
F0.49567389488220215
sg268
F0.00044083595275878906
sg6
F9.047604084014893
sg4
g531
sg270
I360
sg2
I01
sg3
I360
sa(dp536
g7
F0.20881414413452148
sg268
F0.0005071163177490234
sg6
F2.8174889087677
sg4
g531
sg270
I115
sg2
I01
sg3
I115
sa(dp537
g7
F3.3742380142211914
sg268
F0.0005049705505371094
sg6
F2.722292900085449
sg4
g531
sg270
I113
sg2
I01
sg3
I113
sa(dp538
g7
F4.13709282875061
sg268
F0.00045990943908691406
sg6
F4.916066884994507
sg4
g531
sg270
I201
sg2
I01
sg3
I201
sa(dp539
g7
F21.808364152908325
sg268
F0.00042891502380371094
sg6
F2.8396689891815186
sg4
g531
sg270
I114
sg2
I01
sg3
I114
sa(dp540
g7
F1.268420934677124
sg268
F0.00048089027404785156
sg6
F10.678905010223389
sg4
g531
sg270
I424
sg2
I01
sg3
I424
sa(dp541
g7
F27.625417947769165
sg268
F0.0009641647338867188
sg6
F2.016488790512085
sg4
g531
sg270
I80
sg2
I01
sg3
I81
sa(dp542
g7
F8.39327597618103
sg268
F0.0015408992767333984
sg6
F1.3989801406860352
sg4
g531
sg270
I56
sg2
I01
sg3
I57
sa(dp543
g7
F9.636749982833862
sg268
F0.0013058185577392578
sg6
F1.8583219051361084
sg4
g531
sg270
I74
sg2
I01
sg3
I76
sa(dp544
g7
F45.17213416099548
sg268
F0.002079010009765625
sg6
F0.7990560531616211
sg4
g531
sg270
I32
sg2
I01
sg3
I35
sa(dp545
g7
F2.6133170127868652
sg268
F0.0005598068237304688
sg6
F17.178359985351562
sg4
g531
sg270
I687
sg2
I01
sg3
I687
sa(dp546
g7
F6.6354639530181885
sg268
F0.0011610984802246094
sg6
F14.745790004730225
sg4
g531
sg270
I585
sg2
I01
sg3
I586
sa(dp547
g7
F1.4248239994049072
sg268
F0.0004839897155761719
sg6
F3.81770396232605
sg4
g531
sg270
I148
sg2
I01
sg3
I148
sa(dp548
g7
F5.279124975204468
sg268
F0.000985860824584961
sg6
F1.0268309116363525
sg4
g531
sg270
I41
sg2
I01
sg3
I42
sa(dp549
g7
F5.363660097122192
sg268
F0.00048804283142089844
sg6
F4.814033031463623
sg4
g531
sg270
I192
sg2
I01
sg3
I192
sa(dp550
g7
F0.1961531639099121
sg268
F0.0007698535919189453
sg6
F1.9513590335845947
sg4
g531
sg270
I77
sg2
I01
sg3
I77
sa(dp551
g7
F7.419061183929443
sg268
F0.0012509822845458984
sg6
F2.0037710666656494
sg4
g531
sg270
I78
sg2
I01
sg3
I79
sa(dp552
g7
F18.093313217163086
sg268
F0.0017783641815185547
sg6
F1.5142021179199219
sg4
g531
sg270
I59
sg2
I01
sg3
I61
sa(dp553
g7
F0.7121729850769043
sg268
F0.0005500316619873047
sg6
F6.435205936431885
sg4
g531
sg270
I258
sg2
I01
sg3
I258
sa(dp554
g7
F0.28961181640625
sg268
F0.0005288124084472656
sg6
F4.5810160636901855
sg4
g531
sg270
I182
sg2
I01
sg3
I182
sa(dp555
g7
F0.7298009395599365
sg268
F0.0004279613494873047
sg6
F1.0474419593811035
sg4
g531
sg270
I42
sg2
I01
sg3
I42
sa(dp556
g7
F0.5508999824523926
sg268
F0.0006258487701416016
sg6
F3.146895170211792
sg4
g531
sg270
I126
sg2
I01
sg3
I126
sa(dp557
g7
F2.513765811920166
sg268
F0.0005078315734863281
sg6
F4.742708921432495
sg4
g531
sg270
I188
sg2
I01
sg3
I188
sa(dp558
g7
F0.888369083404541
sg268
F0.00047397613525390625
sg6
F4.410388946533203
sg4
g531
sg270
I179
sg2
I01
sg3
I179
sa(dp559
g7
F115.27116894721985
sg268
F0.0014808177947998047
sg6
F1.982550859451294
sg4
g531
sg270
I78
sg2
I01
sg3
I80
sa(dp560
g7
F0.5316610336303711
sg268
F0.000640869140625
sg6
F3.843474864959717
sg4
g531
sg270
I154
sg2
I01
sg3
I154
sa(dp561
g7
F1.2261176109313965
sg268
F0.007548093795776367
sg6
F0.2720770835876465
sg4
g531
sg270
I11
sg2
I01
sg3
I23
sa(dp562
g7
F0.5762829780578613
sg268
F0.0006299018859863281
sg6
F13.437392950057983
sg4
g531
sg270
I537
sg2
I01
sg3
I537
sa(dp563
g7
F4.884378910064697
sg268
F0.0004889965057373047
sg6
F1.8335001468658447
sg4
g531
sg270
I74
sg2
I01
sg3
I74
sa(dp564
g7
F7.4319679737091064
sg268
F0.0004839897155761719
sg6
F6.135414123535156
sg4
g531
sg270
I248
sg2
I01
sg3
I248
sa(dp565
g7
F0.340040922164917
sg268
F0.0007688999176025391
sg6
F1.1322441101074219
sg4
g531
sg270
I46
sg2
I01
sg3
I46
sa(dp566
g7
F9.633110046386719
sg268
F0.0004820823669433594
sg6
F3.981732130050659
sg4
g531
sg270
I162
sg2
I01
sg3
I162
sa(dp567
g7
F21.207876920700073
sg268
F0.0005221366882324219
sg6
F0.9436759948730469
sg4
g531
sg270
I38
sg2
I01
sg3
I38
sa(dp568
g7
F0.7516629695892334
sg268
F0.0007760524749755859
sg6
F2.5972490310668945
sg4
g531
sg270
I110
sg2
I01
sg3
I110
sa(dp569
g7
F0.5452971458435059
sg268
F0.0006468296051025391
sg6
F5.594889163970947
sg4
g531
sg270
I235
sg2
I01
sg3
I235
sa(dp570
g7
F1.4618630409240723
sg268
F0.0006239414215087891
sg6
F7.160210132598877
sg4
g531
sg270
I296
sg2
I01
sg3
I296
sa(dp571
g7
F36.47202014923096
sg268
F0.0005040168762207031
sg6
F4.547828912734985
sg4
g531
sg270
I190
sg2
I01
sg3
I190
sa(dp572
g7
F0.9395520687103271
sg268
F0.0006909370422363281
sg6
F5.117702960968018
sg4
g531
sg270
I216
sg2
I01
sg3
I216
sa(dp573
g7
F0.7874209880828857
sg268
F0.0004949569702148438
sg6
F3.5397439002990723
sg4
g531
sg270
I150
sg2
I01
sg3
I150
sa(dp574
g7
F7.531849145889282
sg268
F0.0005180835723876953
sg6
F3.277539014816284
sg4
g531
sg270
I138
sg2
I01
sg3
I138
sa(dp575
g7
F0.828711986541748
sg268
F0.0005688667297363281
sg6
F3.4534640312194824
sg4
g531
sg270
I145
sg2
I01
sg3
I145
sa(dp576
g7
F1.4589848518371582
sg268
F0.0004940032958984375
sg6
F12.476800918579102
sg4
g531
sg270
I473
sg2
I01
sg3
I473
sa(dp577
g7
F2.0581729412078857
sg268
F0.0010480880737304688
sg6
F1.6825370788574219
sg4
g531
sg270
I71
sg2
I01
sg3
I72
sa(dp578
g7
F3.0864689350128174
sg268
F0.0005118846893310547
sg6
F5.585747957229614
sg4
g531
sg270
I235
sg2
I01
sg3
I235
sa(dp579
g7
F0.24141192436218262
sg268
F0.0005040168762207031
sg6
F1.9105579853057861
sg4
g531
sg270
I81
sg2
I01
sg3
I81
sa(dp580
g7
F0.79827880859375
sg268
F0.0005021095275878906
sg6
F5.343448877334595
sg4
g531
sg270
I212
sg2
I01
sg3
I212
sa(dp581
g7
F0.3715181350708008
sg268
F0.00048089027404785156
sg6
F6.275787115097046
sg4
g531
sg270
I259
sg2
I01
sg3
I259
sa(dp582
g7
F1.2544500827789307
sg268
F0.0005218982696533203
sg6
F2.5372509956359863
sg4
g531
sg270
I107
sg2
I01
sg3
I107
sa(dp583
g7
F0.7159688472747803
sg268
F0.001961946487426758
sg6
F1.170145034790039
sg4
g531
sg270
I49
sg2
I01
sg3
I52
sa(dp584
g7
F9.959430932998657
sg268
F0.0004980564117431641
sg6
F7.098806858062744
sg4
g531
sg270
I299
sg2
I01
sg3
I299
sa(dp585
g7
F1.8318872451782227
sg268
F0.0073795318603515625
sg6
F0.24408388137817383
sg4
g531
sg270
I10
sg2
I01
sg3
I20
sa(dp586
g7
F2.270028829574585
sg268
F0.0005009174346923828
sg6
F5.528678894042969
sg4
g531
sg270
I227
sg2
I01
sg3
I227
sa(dp587
g7
F1.8145761489868164
sg268
F0.0009126663208007812
sg6
F1.7465100288391113
sg4
g531
sg270
I74
sg2
I01
sg3
I75
sa(dp588
g7
F2.2197840213775635
sg268
F0.0005171298980712891
sg6
F0.7020368576049805
sg4
g531
sg270
I29
sg2
I01
sg3
I29
sa(dp589
g7
F1.2467389106750488
sg268
F0.00047206878662109375
sg6
F0.7695469856262207
sg4
g531
sg270
I34
sg2
I01
sg3
I34
sa(dp590
g7
F17.19519805908203
sg268
F0.00041794776916503906
sg6
F3.0899689197540283
sg4
g531
sg270
I128
sg2
I01
sg3
I128
sa(dp591
g7
F27.56473422050476
sg268
F0.002115964889526367
sg6
F3.5745270252227783
sg4
g531
sg270
I162
sg2
I01
sg3
I166
sa(dp592
g7
F0.30030083656311035
sg268
F0.0005440711975097656
sg6
F6.925107955932617
sg4
g531
sg270
I312
sg2
I01
sg3
I312
sa(dp593
g7
F3.917447090148926
sg268
F0.00041103363037109375
sg6
F1.6892950534820557
sg4
g531
sg270
I70
sg2
I01
sg3
I70
sa(dp594
g7
F1.369481086730957
sg268
F0.0004799365997314453
sg6
F2.5078630447387695
sg4
g531
sg270
I113
sg2
I01
sg3
I113
sa(dp595
g7
F0.5165050029754639
sg268
F0.0004611015319824219
sg6
F2.3396430015563965
sg4
g531
sg270
I106
sg2
I01
sg3
I106
sa(dp596
g7
F2.7806317806243896
sg268
F0.0005438327789306641
sg6
F13.516187906265259
sg4
g531
sg270
I610
sg2
I01
sg3
I610
sa(dp597
g7
F13.941733121871948
sg268
F0.0019102096557617188
sg6
F5.7812111377716064
sg4
g531
sg270
I252
sg2
I01
sg3
I255
sa(dp598
g7
F0.8742640018463135
sg268
F0.0007450580596923828
sg6
F13.327059984207153
sg4
g531
sg270
I603
sg2
I01
sg3
I603
sa(dp599
g7
F0.6243360042572021
sg268
F0.0004940032958984375
sg6
F5.531860828399658
sg4
g531
sg270
I250
sg2
I01
sg3
I250
sa(dp600
g7
F39.80599904060364
sg268
F0.0009691715240478516
sg6
F3.890408992767334
sg4
g531
sg270
I176
sg2
I01
sg3
I177
sa(dp601
g7
F0.3324759006500244
sg268
F0.0005290508270263672
sg6
F2.639058828353882
sg4
g531
sg270
I120
sg2
I01
sg3
I120
sa(dp602
g7
F2.6531920433044434
sg268
F0.00043201446533203125
sg6
F0.9459948539733887
sg4
g531
sg270
I43
sg2
I01
sg3
I43
sa(dp603
g7
F2.3635809421539307
sg268
F0.00048804283142089844
sg6
F5.7464048862457275
sg4
g531
sg270
I258
sg2
I01
sg3
I258
sa(dp604
g7
F0.5446240901947021
sg268
F0.0005080699920654297
sg6
F13.085455179214478
sg4
g531
sg270
I591
sg2
I01
sg3
I591
sa(dp605
g7
F0.9686439037322998
sg268
F0.0005400180816650391
sg6
F6.956228017807007
sg4
g531
sg270
I314
sg2
I01
sg3
I314
sa(dp606
g7
F45.316869020462036
sg268
F0.0010669231414794922
sg6
F5.317903995513916
sg4
g531
sg270
I239
sg2
I01
sg3
I240
sa(dp607
g7
F0.127777099609375
sg268
F0.0004899501800537109
sg6
F0.660067081451416
sg4
g531
sg270
I30
sg2
I01
sg3
I30
sa(dp608
g7
F4.08335280418396
sg268
F0.0004999637603759766
sg6
F2.0188469886779785
sg4
g531
sg270
I91
sg2
I01
sg3
I91
sa(dp609
g7
F2.667469024658203
sg268
F0.0005080699920654297
sg6
F1.64444899559021
sg4
g531
sg270
I75
sg2
I01
sg3
I75
sa(dp610
g7
F0.44193601608276367
sg268
F0.0005750656127929688
sg6
F8.273650169372559
sg4
g531
sg270
I372
sg2
I01
sg3
I372
sa(dp611
g7
F3.9306728839874268
sg268
F0.0004799365997314453
sg6
F1.4768171310424805
sg4
g531
sg270
I67
sg2
I01
sg3
I67
sa(dp612
g7
F0.29180312156677246
sg268
F0.007002115249633789
sg6
F0.2189478874206543
sg4
g531
sg270
I10
sg2
I01
sg3
I21
sa(dp613
g7
F1.3974380493164062
sg268
F0.0005619525909423828
sg6
F2.7175140380859375
sg4
g531
sg270
I118
sg2
I01
sg3
I118
sa(dp614
g7
F0.7753591537475586
sg268
F0.000537872314453125
sg6
F16.35978889465332
sg4
g531
sg270
I736
sg2
I01
sg3
I736
sa(dp615
g7
F1.308135986328125
sg268
F0.0005960464477539062
sg6
F7.667112827301025
sg4
g531
sg270
I347
sg2
I01
sg3
I347
sa(dp616
g7
F1.6646788120269775
sg268
F0.00046706199645996094
sg6
F5.990875005722046
sg4
g531
sg270
I269
sg2
I01
sg3
I269
sa(dp617
g7
F38.93453049659729
sg268
F0.002045869827270508
sg6
F0.9439260959625244
sg4
g531
sg270
I43
sg2
I01
sg3
I46
sa(dp618
g7
F2.777208089828491
sg268
F0.0004570484161376953
sg6
F1.1018121242523193
sg4
g531
sg270
I50
sg2
I01
sg3
I50
sa(dp619
g7
F0.30456113815307617
sg268
F0.0004930496215820312
sg6
F3.7939770221710205
sg4
g531
sg270
I172
sg2
I01
sg3
I172
sa(dp620
g7
F7.955022096633911
sg268
F0.0005059242248535156
sg6
F1.3063461780548096
sg4
g531
sg270
I59
sg2
I01
sg3
I59
sa(dp621
g7
F38.73203110694885
sg268
F0.0005290508270263672
sg6
F1.1661150455474854
sg4
g531
sg270
I53
sg2
I01
sg3
I53
sa(dp622
g7
F24.47398591041565
sg268
F0.0013811588287353516
sg6
F0.6379179954528809
sg4
g531
sg270
I29
sg2
I01
sg3
I31
sa(dp623
g7
F0.4035990238189697
sg268
F0.0004820823669433594
sg6
F1.9362139701843262
sg4
g531
sg270
I88
sg2
I01
sg3
I88
sa(dp624
g7
F69.00752019882202
sg268
F0.0017011165618896484
sg6
F0.8778131008148193
sg4
g531
sg270
I40
sg2
I01
sg3
I43
sa(dp625
g7
F0.2718231678009033
sg268
F0.0005629062652587891
sg6
F1.4756391048431396
sg4
g531
sg270
I64
sg2
I01
sg3
I64
sa(dp626
g7
F3.400702953338623
sg268
F0.0005509853363037109
sg6
F2.6598048210144043
sg4
g531
sg270
I120
sg2
I01
sg3
I120
sa(dp627
g7
F0.4610559940338135
sg268
F0.00048613548278808594
sg6
F1.6147880554199219
sg4
g531
sg270
I73
sg2
I01
sg3
I73
sa(dp628
g7
F2.665938138961792
sg268
F0.0004570484161376953
sg6
F2.762265920639038
sg4
g531
sg270
I121
sg2
I01
sg3
I121
sa(dp629
g7
F1.1638898849487305
sg268
F0.0005559921264648438
sg6
F2.431459903717041
sg4
g531
sg270
I109
sg2
I01
sg3
I109
sa(dp630
g7
F0.8675172328948975
sg268
F0.0004630088806152344
sg6
F1.5447180271148682
sg4
g531
sg270
I71
sg2
I01
sg3
I71
sa(dp631
g7
F0.5013246536254883
sg268
F0.0048236846923828125
sg6
F0.24155306816101074
sg4
g531
sg270
I11
sg2
I01
sg3
I18
sa(dp632
g7
F0.160369873046875
sg268
F0.0004668235778808594
sg6
F2.637416124343872
sg4
g531
sg270
I119
sg2
I01
sg3
I119
sa(dp633
g7
F4.442108869552612
sg268
F0.0005350112915039062
sg6
F1.2263660430908203
sg4
g531
sg270
I56
sg2
I01
sg3
I56
sa(dp634
g7
F8.732748031616211
sg268
F0.0004820823669433594
sg6
F2.495973825454712
sg4
g531
sg270
I113
sg2
I01
sg3
I113
sa(dp635
g7
F1.4780840873718262
sg268
F0.0005791187286376953
sg6
F8.697890043258667
sg4
g531
sg270
I394
sg2
I01
sg3
I394
sa(dp636
g7
F3.079972982406616
sg268
F0.0004401206970214844
sg6
F0.9842979907989502
sg4
g531
sg270
I43
sg2
I01
sg3
I43
sa(dp637
g7
F3.7243239879608154
sg268
F0.0004611015319824219
sg6
F2.3186089992523193
sg4
g531
sg270
I105
sg2
I01
sg3
I105
sa(dp638
g7
F1.0189330577850342
sg268
F0.0012009143829345703
sg6
F1.2301599979400635
sg4
g531
sg270
I56
sg2
I01
sg3
I57
sa(dp639
g7
F0.2876598834991455
sg268
F0.0005371570587158203
sg6
F4.431861877441406
sg4
g531
sg270
I201
sg2
I01
sg3
I201
sa(dp640
g7
F2.3505699634552
sg268
F0.00045800209045410156
sg6
F2.008523941040039
sg4
g531
sg270
I91
sg2
I01
sg3
I91
sa(dp641
g7
F0.6988439559936523
sg268
F0.0011048316955566406
sg6
F1.053637981414795
sg4
g531
sg270
I48
sg2
I01
sg3
I49
sa(dp642
g7
F1.375446081161499
sg268
F0.0004851818084716797
sg6
F5.640068054199219
sg4
g531
sg270
I256
sg2
I01
sg3
I256
sa(dp643
g7
F1.1788060665130615
sg268
F0.0005550384521484375
sg6
F16.078248977661133
sg4
g531
sg270
I726
sg2
I01
sg3
I726
sa(dp644
g7
F0.25994110107421875
sg268
F0.0005640983581542969
sg6
F4.760468006134033
sg4
g531
sg270
I216
sg2
I01
sg3
I216
sa(dp645
g7
F0.721301794052124
sg268
F0.0005159378051757812
sg6
F1.988178014755249
sg4
g531
sg270
I89
sg2
I01
sg3
I89
sa(dp646
g7
F4.048084020614624
sg268
F0.0012028217315673828
sg6
F1.0973050594329834
sg4
g531
sg270
I50
sg2
I01
sg3
I51
sa(dp647
g7
F0.21182584762573242
sg268
F0.0005199909210205078
sg6
F3.627060890197754
sg4
g531
sg270
I165
sg2
I01
sg3
I165
sa(dp648
g7
F24.61150074005127
sg268
F0.0016741752624511719
sg6
F6.4952919483184814
sg4
g531
sg270
I295
sg2
I01
sg3
I297
sa(dp649
g7
F1.8832118511199951
sg268
F0.0004949569702148438
sg6
F4.143615007400513
sg4
g531
sg270
I183
sg2
I01
sg3
I183
sa(dp650
g7
F0.4213128089904785
sg268
F0.0005428791046142578
sg6
F4.709208965301514
sg4
g531
sg270
I213
sg2
I01
sg3
I213
sa(dp651
g7
F0.2617809772491455
sg268
F0.00041294097900390625
sg6
F1.8659610748291016
sg4
g531
sg270
I81
sg2
I01
sg3
I81
sa(dp652
g7
F23.472069025039673
sg268
F0.0015192031860351562
sg6
F0.34133410453796387
sg4
g531
sg270
I16
sg2
I01
sg3
I18
sa(dp653
g7
F1.2736170291900635
sg268
F0.0004570484161376953
sg6
F0.8667130470275879
sg4
g531
sg270
I39
sg2
I01
sg3
I39
sa(dp654
g7
F23.70615863800049
sg268
F0.0010237693786621094
sg6
F1.6133520603179932
sg4
g531
sg270
I73
sg2
I01
sg3
I74
sa(dp655
g7
F5.298412084579468
sg268
F0.0004830360412597656
sg6
F6.868156909942627
sg4
g531
sg270
I312
sg2
I01
sg3
I312
sa(dp656
g7
F1.487623929977417
sg268
F0.0005478858947753906
sg6
F7.232792139053345
sg4
g531
sg270
I327
sg2
I01
sg3
I327
sa(dp657
g7
F0.7810587882995605
sg268
F0.0005059242248535156
sg6
F5.010532855987549
sg4
g531
sg270
I227
sg2
I01
sg3
I227
sa(dp658
g7
F0.4904630184173584
sg268
F0.0004589557647705078
sg6
F3.503178834915161
sg4
g531
sg270
I159
sg2
I01
sg3
I159
sa(dp659
g7
F1.5247468948364258
sg268
F0.0005300045013427734
sg6
F6.228212118148804
sg4
g531
sg270
I281
sg2
I01
sg3
I281
sa(dp660
g7
F22.68025779724121
sg268
F0.0010578632354736328
sg6
F4.152600049972534
sg4
g531
sg270
I188
sg2
I01
sg3
I189
sa(dp661
g7
F1.1724388599395752
sg268
F0.0005068778991699219
sg6
F10.841960906982422
sg4
g531
sg270
I475
sg2
I01
sg3
I475
sa(dp662
g7
F3.3944320678710938
sg268
F0.0005350112915039062
sg6
F6.437639951705933
sg4
g531
sg270
I292
sg2
I01
sg3
I292
sa(dp663
g7
F12.38838815689087
sg268
F0.0004420280456542969
sg6
F4.254061937332153
sg4
g531
sg270
I191
sg2
I01
sg3
I191
sa(dp664
g7
F0.7204129695892334
sg268
F0.00043892860412597656
sg6
F3.0289909839630127
sg4
g531
sg270
I137
sg2
I01
sg3
I137
sa(dp665
g7
F0.6981430053710938
sg268
F0.00046896934509277344
sg6
F2.8059029579162598
sg4
g531
sg270
I127
sg2
I01
sg3
I127
sa(dp666
g7
F2.985136032104492
sg268
F0.0004661083221435547
sg6
F2.778409004211426
sg4
g531
sg270
I126
sg2
I01
sg3
I126
sa(dp667
g7
F0.33974194526672363
sg268
F0.0005259513854980469
sg6
F2.2062888145446777
sg4
g531
sg270
I100
sg2
I01
sg3
I100
sa(dp668
g7
F4.367936134338379
sg268
F0.0006170272827148438
sg6
F2.1595540046691895
sg4
g531
sg270
I98
sg2
I01
sg3
I98
sa(dp669
g7
F0.4358952045440674
sg268
F0.0004839897155761719
sg6
F6.8036110401153564
sg4
g531
sg270
I308
sg2
I01
sg3
I308
sa(dp670
g7
F1.204521894454956
sg268
F0.0004611015319824219
sg6
F5.691657781600952
sg4
g531
sg270
I259
sg2
I01
sg3
I259
sa(dp671
g7
F3.005510091781616
sg268
F0.00045609474182128906
sg6
F1.575326919555664
sg4
g531
sg270
I71
sg2
I01
sg3
I71
sa(dp672
g7
F1.416213035583496
sg268
F0.0004742145538330078
sg6
F7.222838878631592
sg4
g531
sg270
I327
sg2
I01
sg3
I327
sa(dp673
g7
F1.5469350814819336
sg268
F0.0005061626434326172
sg6
F3.8991730213165283
sg4
g531
sg270
I177
sg2
I01
sg3
I177
sa(dp674
g7
F0.6596100330352783
sg268
F0.0005459785461425781
sg6
F16.24936819076538
sg4
g531
sg270
I700
sg2
I01
sg3
I700
sa(dp675
g7
F4.824860095977783
sg268
F0.0015709400177001953
sg6
F3.2059950828552246
sg4
g531
sg270
I145
sg2
I01
sg3
I147
sa(dp676
g7
F0.7486758232116699
sg268
F0.0005018711090087891
sg6
F3.5552499294281006
sg4
g531
sg270
I161
sg2
I01
sg3
I161
sa(dp677
g7
F0.759246826171875
sg268
F0.00047588348388671875
sg6
F2.159132957458496
sg4
g531
sg270
I99
sg2
I01
sg3
I99
sa(dp678
g7
F7.550899028778076
sg268
F0.0005419254302978516
sg6
F3.8199939727783203
sg4
g531
sg270
I173
sg2
I01
sg3
I173
sa(dp679
g7
F3.4278149604797363
sg268
F0.00045418739318847656
sg6
F0.8136961460113525
sg4
g531
sg270
I37
sg2
I01
sg3
I37
sa(dp680
g7
F3.2177209854125977
sg268
F0.0005991458892822266
sg6
F0.9459149837493896
sg4
g531
sg270
I43
sg2
I01
sg3
I43
sa(dp681
g7
F1.214812994003296
sg268
F0.0004780292510986328
sg6
F9.267767906188965
sg4
g531
sg270
I419
sg2
I01
sg3
I419
sa(dp682
g7
F1.1337699890136719
sg268
F0.0005071163177490234
sg6
F5.86742901802063
sg4
g531
sg270
I267
sg2
I01
sg3
I267
sa(dp683
g7
F2.5303139686584473
sg268
F0.006450176239013672
sg6
F0.3948099613189697
sg4
g531
sg270
I18
sg2
I01
sg3
I28
sa(dp684
g7
F41.719985246658325
sg268
F0.0014889240264892578
sg6
F1.3317999839782715
sg4
g531
sg270
I61
sg2
I01
sg3
I63
sa(dp685
g7
F2.2522101402282715
sg268
F0.00045800209045410156
sg6
F6.039161920547485
sg4
g531
sg270
I274
sg2
I01
sg3
I274
sa(dp686
g7
F0.32720088958740234
sg268
F0.0006461143493652344
sg6
F3.435006856918335
sg4
g531
sg270
I157
sg2
I01
sg3
I157
sa(dp687
g7
F0.29948902130126953
sg268
F0.00048804283142089844
sg6
F3.312140941619873
sg4
g531
sg270
I150
sg2
I01
sg3
I150
sa(dp688
g7
F2.527545213699341
sg268
F0.0032253265380859375
sg6
F0.9214401245117188
sg4
g531
sg270
I41
sg2
I01
sg3
I47
sa(dp689
g7
F1.0482041835784912
sg268
F0.00046896934509277344
sg6
F1.1135740280151367
sg4
g531
sg270
I51
sg2
I01
sg3
I51
sa(dp690
g7
F3.0167291164398193
sg268
F0.0005500316619873047
sg6
F10.320263147354126
sg4
g531
sg270
I466
sg2
I01
sg3
I466
sa(dp691
g7
F1.7216479778289795
sg268
F0.0005271434783935547
sg6
F6.194292783737183
sg4
g531
sg270
I281
sg2
I01
sg3
I281
sa(dp692
g7
F1.0058660507202148
sg268
F0.0005030632019042969
sg6
F2.484462022781372
sg4
g531
sg270
I113
sg2
I01
sg3
I113
sa(dp693
g7
F0.5721261501312256
sg268
F0.0005788803100585938
sg6
F4.627901077270508
sg4
g531
sg270
I210
sg2
I01
sg3
I210
sa(dp694
g7
F3.074821949005127
sg268
F0.0009217262268066406
sg6
F1.9296720027923584
sg4
g531
sg270
I88
sg2
I01
sg3
I89
sa(dp695
g7
F2.421935796737671
sg268
F0.00049591064453125
sg6
F2.9991559982299805
sg4
g531
sg270
I136
sg2
I01
sg3
I136
sa(dp696
g7
F0.31293821334838867
sg268
F0.0005900859832763672
sg6
F6.210521936416626
sg4
g531
sg270
I283
sg2
I01
sg3
I283
sa(dp697
g7
F0.5390369892120361
sg268
F0.0005230903625488281
sg6
F10.063796997070312
sg4
g531
sg270
I448
sg2
I01
sg3
I448
sa(dp698
g7
F9.504723072052002
sg268
F0.0009629726409912109
sg6
F1.1597349643707275
sg4
g531
sg270
I52
sg2
I01
sg3
I53
sa(dp699
g7
F1.5676827430725098
sg268
F0.014461755752563477
sg6
F0.06774592399597168
sg4
g531
sg270
I3
sg2
I01
sg3
I28
sa(dp700
g7
F1.5292038917541504
sg268
F0.0005230903625488281
sg6
F4.280727863311768
sg4
g531
sg270
I189
sg2
I01
sg3
I189
sa(dp701
g7
F0.820706844329834
sg268
F0.0004820823669433594
sg6
F2.0073227882385254
sg4
g531
sg270
I91
sg2
I01
sg3
I91
sa(dp702
g7
F0.3537459373474121
sg268
F0.0005948543548583984
sg6
F1.6313049793243408
sg4
g531
sg270
I74
sg2
I01
sg3
I74
sa(dp703
g7
F0.4126582145690918
sg268
F0.0004849433898925781
sg6
F6.8912200927734375
sg4
g531
sg270
I310
sg2
I01
sg3
I310
sa(dp704
g7
F6.684665203094482
sg268
F0.0005190372467041016
sg6
F3.1186749935150146
sg4
g531
sg270
I142
sg2
I01
sg3
I142
sa(dp705
g7
F1.032679796218872
sg268
F0.00047087669372558594
sg6
F3.1566247940063477
sg4
g531
sg270
I140
sg2
I01
sg3
I140
sa(dp706
g7
F1.7207050323486328
sg268
F0.0005860328674316406
sg6
F1.9611070156097412
sg4
g531
sg270
I89
sg2
I01
sg3
I89
sa(dp707
g7
F0.9860420227050781
sg268
F0.0007081031799316406
sg6
F4.411816120147705
sg4
g531
sg270
I200
sg2
I01
sg3
I200
sa(dp708
g7
F1.4793798923492432
sg268
F0.0005428791046142578
sg6
F7.967858076095581
sg4
g531
sg270
I363
sg2
I01
sg3
I363
sa(dp709
g7
F8.250491857528687
sg268
F0.0007028579711914062
sg6
F2.702901840209961
sg4
g531
sg270
I123
sg2
I01
sg3
I123
sa(dp710
g7
F0.3998830318450928
sg268
F0.0005950927734375
sg6
F5.413333892822266
sg4
g531
sg270
I245
sg2
I01
sg3
I245
sa(dp711
g7
F1.0911128520965576
sg268
F0.0004742145538330078
sg6
F2.4321658611297607
sg4
g531
sg270
I110
sg2
I01
sg3
I110
sa(dp712
g7
F2.8519020080566406
sg268
F0.0005359649658203125
sg6
F1.5755441188812256
sg4
g531
sg270
I72
sg2
I01
sg3
I72
sa(dp713
g7
F13.98589301109314
sg268
F0.0009930133819580078
sg6
F5.5850989818573
sg4
g531
sg270
I253
sg2
I01
sg3
I254
sa(dp714
g7
F3.593332052230835
sg268
F0.0004799365997314453
sg6
F4.888138055801392
sg4
g531
sg270
I221
sg2
I01
sg3
I221
sa(dp715
g7
F2.1234779357910156
sg268
F0.0004911422729492188
sg6
F4.796296834945679
sg4
g531
sg270
I217
sg2
I01
sg3
I217
sa(dp716
g7
F2.4327449798583984
sg268
F0.0004608631134033203
sg6
F3.4144411087036133
sg4
g531
sg270
I150
sg2
I01
sg3
I150
sa(dp717
g7
F0.4210519790649414
sg268
F0.0005679130554199219
sg6
F5.8296589851379395
sg4
g531
sg270
I264
sg2
I01
sg3
I264
sa(dp718
g7
F3.7405378818511963
sg268
F0.0005788803100585938
sg6
F3.875190019607544
sg4
g531
sg270
I172
sg2
I01
sg3
I172
sa(dp719
g7
F0.31788015365600586
sg268
F0.0005440711975097656
sg6
F6.684962034225464
sg4
g531
sg270
I303
sg2
I01
sg3
I303
sa(dp720
g7
F6.759480953216553
sg268
F0.0005438327789306641
sg6
F3.5436930656433105
sg4
g531
sg270
I162
sg2
I01
sg3
I162
sa(dp721
g7
F0.16607403755187988
sg268
F0.0005528926849365234
sg6
F1.8993511199951172
sg4
g531
sg270
I86
sg2
I01
sg3
I86
sa(dp722
g7
F0.6089940071105957
sg268
F0.0009717941284179688
sg6
F1.9269909858703613
sg4
g531
sg270
I86
sg2
I01
sg3
I87
sa(dp723
g7
F3.7469639778137207
sg268
F0.0005099773406982422
sg6
F1.557508945465088
sg4
g531
sg270
I70
sg2
I01
sg3
I70
sa(dp724
g7
F0.3637549877166748
sg268
F0.0005629062652587891
sg6
F2.93251895904541
sg4
g531
sg270
I133
sg2
I01
sg3
I133
sa(dp725
g7
F4.48396110534668
sg268
F0.000514984130859375
sg6
F3.1411190032958984
sg4
g531
sg270
I142
sg2
I01
sg3
I142
sa(dp726
g7
F36.037492990493774
sg268
F0.0011889934539794922
sg6
F4.405648946762085
sg4
g531
sg270
I199
sg2
I01
sg3
I200
sa(dp727
g7
F11.885860204696655
sg268
F0.0005538463592529297
sg6
F1.940535068511963
sg4
g531
sg270
I88
sg2
I01
sg3
I88
sa(dp728
g7
F0.0683598518371582
sg268
F0.0005681514739990234
sg6
F1.0849430561065674
sg4
g531
sg270
I49
sg2
I01
sg3
I49
sa(dp729
g7
F2.5715091228485107
sg268
F0.0005669593811035156
sg6
F1.6460330486297607
sg4
g531
sg270
I75
sg2
I01
sg3
I75
sa(dp730
g7
F9.722930908203125
sg268
F0.0004870891571044922
sg6
F3.0147321224212646
sg4
g531
sg270
I137
sg2
I01
sg3
I137
sa(dp731
g7
F0.2862870693206787
sg268
F0.000431060791015625
sg6
F1.9478209018707275
sg4
g531
sg270
I89
sg2
I01
sg3
I89
sa(dp732
g7
F3.3903889656066895
sg268
F0.0019428730010986328
sg6
F1.235579013824463
sg4
g531
sg270
I56
sg2
I01
sg3
I59
sa(dp733
g7
F16.236679077148438
sg268
F0.00045990943908691406
sg6
F1.4152641296386719
sg4
g531
sg270
I64
sg2
I01
sg3
I64
sa(dp734
g7
F2.127573013305664
sg268
F0.0005750656127929688
sg6
F16.714555025100708
sg4
g531
sg270
I742
sg2
I01
sg3
I742
sa(dp735
g7
F6.633948087692261
sg268
F0.0005540847778320312
sg6
F2.53233003616333
sg4
g531
sg270
I114
sg2
I01
sg3
I114
sa(dp736
g7
F1.4211061000823975
sg268
F0.000492095947265625
sg6
F15.19980001449585
sg4
g531
sg270
I682
sg2
I01
sg3
I682
sa(dp737
g7
F0.31690096855163574
sg268
F0.0004820823669433594
sg6
F0.8214089870452881
sg4
g531
sg270
I37
sg2
I01
sg3
I37
sa(dp738
g7
F0.7359161376953125
sg268
F0.0004589557647705078
sg6
F2.2016310691833496
sg4
g531
sg270
I100
sg2
I01
sg3
I100
sa(dp739
g7
F0.6371850967407227
sg268
F0.0005259513854980469
sg6
F1.611185073852539
sg4
g531
sg270
I73
sg2
I01
sg3
I73
sa(dp740
g7
F3.3288490772247314
sg268
F0.0004901885986328125
sg6
F2.050955057144165
sg4
g531
sg270
I93
sg2
I01
sg3
I93
sa(dp741
g7
F1.6355841159820557
sg268
F0.0004870891571044922
sg6
F4.910114049911499
sg4
g531
sg270
I197
sg2
I01
sg3
I197
sa(dp742
g7
F3.100861072540283
sg268
F0.001013040542602539
sg6
F1.4994540214538574
sg4
g531
sg270
I67
sg2
I01
sg3
I68
sa(dp743
g7
F8.18516492843628
sg268
F0.00043392181396484375
sg6
F2.6316070556640625
sg4
g531
sg270
I119
sg2
I01
sg3
I119
sa(dp744
g7
F37.67705011367798
sg268
F0.0019059181213378906
sg6
F3.8202600479125977
sg4
g531
sg270
I172
sg2
I01
sg3
I175
sa(dp745
g7
F1.1180078983306885
sg268
F0.0005090236663818359
sg6
F7.840527772903442
sg4
g531
sg270
I352
sg2
I01
sg3
I352
sa(dp746
g7
F0.6168410778045654
sg268
F0.00048613548278808594
sg6
F1.9809861183166504
sg4
g531
sg270
I90
sg2
I01
sg3
I90
sa(dp747
g7
F0.25333118438720703
sg268
F0.00047397613525390625
sg6
F2.3857738971710205
sg4
g531
sg270
I94
sg2
I01
sg3
I94
sa(dp748
g7
F7.155083894729614
sg268
F0.0015850067138671875
sg6
F3.74796986579895
sg4
g531
sg270
I169
sg2
I01
sg3
I171
sa(dp749
g7
F6.096940994262695
sg268
F0.0005319118499755859
sg6
F1.721358060836792
sg4
g531
sg270
I78
sg2
I01
sg3
I78
sa(dp750
g7
F1.5639300346374512
sg268
F0.0005328655242919922
sg6
F5.657512903213501
sg4
g531
sg270
I257
sg2
I01
sg3
I257
sa(dp751
g7
F62.29969906806946
sg268
F0.0010530948638916016
sg6
F2.5882670879364014
sg4
g531
sg270
I118
sg2
I01
sg3
I119
sa(dp752
g7
F0.5833890438079834
sg268
F0.00057220458984375
sg6
F12.009418964385986
sg4
g531
sg270
I546
sg2
I01
sg3
I546
sa(dp753
g7
F2.5594229698181152
sg268
F0.0005269050598144531
sg6
F3.380124092102051
sg4
g531
sg270
I154
sg2
I01
sg3
I154
sa(dp754
g7
F0.825592041015625
sg268
F0.0004980564117431641
sg6
F9.263383150100708
sg4
g531
sg270
I420
sg2
I01
sg3
I420
sa(dp755
g7
F0.18752789497375488
sg268
F0.00045180320739746094
sg6
F3.629237174987793
sg4
g531
sg270
I164
sg2
I01
sg3
I164
sa(dp756
g7
F70.71635913848877
sg268
F0.0015270709991455078
sg6
F0.5696179866790771
sg4
g531
sg270
I26
sg2
I01
sg3
I28
sa(dp757
g7
F0.8313469886779785
sg268
F0.0005550384521484375
sg6
F5.503597021102905
sg4
g531
sg270
I248
sg2
I01
sg3
I248
sa(dp758
g7
F1.304858922958374
sg268
F0.0004990100860595703
sg6
F4.464022159576416
sg4
g531
sg270
I202
sg2
I01
sg3
I202
sa(dp759
g7
F6.406538009643555
sg268
F0.0008091926574707031
sg6
F1.4854018688201904
sg4
g531
sg270
I68
sg2
I01
sg3
I69
sa(dp760
g7
F8.217658042907715
sg268
F0.0014390945434570312
sg6
F0.9877400398254395
sg4
g531
sg270
I45
sg2
I01
sg3
I47
sa(dp761
g7
F0.26383209228515625
sg268
F0.0005118846893310547
sg6
F1.3525049686431885
sg4
g531
sg270
I61
sg2
I01
sg3
I61
sa(dp762
g7
F1.1823220252990723
sg268
F0.0005190372467041016
sg6
F8.69344711303711
sg4
g531
sg270
I392
sg2
I01
sg3
I392
sa(dp763
g7
F2.0576601028442383
sg268
F0.0005209445953369141
sg6
F9.57689118385315
sg4
g531
sg270
I436
sg2
I01
sg3
I436
sa(dp764
g7
F1.2846736907958984
sg268
F0.0008511543273925781
sg6
F1.9455409049987793
sg4
g531
sg270
I89
sg2
I01
sg3
I90
sa(dp765
g7
F3.7356138229370117
sg268
F0.0005259513854980469
sg6
F5.09613299369812
sg4
g531
sg270
I232
sg2
I01
sg3
I232
sa(dp766
g7
F1.5791349411010742
sg268
F0.0005950927734375
sg6
F11.916890859603882
sg4
g531
sg270
I540
sg2
I01
sg3
I540
sa(dp767
g7
F21.490734100341797
sg268
F0.0009620189666748047
sg6
F2.7672648429870605
sg4
g531
sg270
I126
sg2
I01
sg3
I127
sa(dp768
g7
F18.14774799346924
sg268
F0.0004520416259765625
sg6
F4.297485828399658
sg4
g531
sg270
I195
sg2
I01
sg3
I195
sa(dp769
g7
F0.9929099082946777
sg268
F0.0005359649658203125
sg6
F8.007311820983887
sg4
g531
sg270
I364
sg2
I01
sg3
I364
sa(dp770
g7
F5.728049993515015
sg268
F0.0005478858947753906
sg6
F3.8011538982391357
sg4
g531
sg270
I173
sg2
I01
sg3
I173
sa(dp771
g7
F73.83511114120483
sg268
F0.0004360675811767578
sg6
F1.3093061447143555
sg4
g531
sg270
I59
sg2
I01
sg3
I59
sa(dp772
g7
F2.5424530506134033
sg268
F0.0005619525909423828
sg6
F7.443593978881836
sg4
g531
sg270
I337
sg2
I01
sg3
I337
sa(dp773
g7
F0.999614953994751
sg268
F0.0005872249603271484
sg6
F19.257298946380615
sg4
g531
sg270
I865
sg2
I01
sg3
I865
sa(dp774
g7
F0.513930082321167
sg268
F0.00045418739318847656
sg6
F6.987275838851929
sg4
g531
sg270
I317
sg2
I01
sg3
I317
sa(dp775
g7
F1.0590031147003174
sg268
F0.0005669593811035156
sg6
F5.903619050979614
sg4
g531
sg270
I266
sg2
I01
sg3
I266
sa(dp776
g7
F0.4590587615966797
sg268
F0.0040531158447265625
sg6
F0.24769115447998047
sg4
g531
sg270
I11
sg2
I01
sg3
I17
sa(dp777
g7
F1.916322946548462
sg268
F0.0005450248718261719
sg6
F3.5843968391418457
sg4
g531
sg270
I163
sg2
I01
sg3
I163
sa(dp778
g7
F6.025992155075073
sg268
F0.0005800724029541016
sg6
F5.89584493637085
sg4
g531
sg270
I268
sg2
I01
sg3
I268
sa(dp779
g7
F3.3570170402526855
sg268
F0.0004858970642089844
sg6
F2.6908299922943115
sg4
g531
sg270
I122
sg2
I01
sg3
I122
sa(dp780
g7
F0.3043980598449707
sg268
F0.00045990943908691406
sg6
F1.0002689361572266
sg4
g531
sg270
I45
sg2
I01
sg3
I45
sa(dp781
g7
F1.568850040435791
sg268
F0.0005550384521484375
sg6
F14.058397054672241
sg4
g531
sg270
I636
sg2
I01
sg3
I636
sa(dp782
g7
F1.389394998550415
sg268
F0.0005800724029541016
sg6
F4.837054014205933
sg4
g531
sg270
I220
sg2
I01
sg3
I220
sa(dp783
g7
F1.0981318950653076
sg268
F0.00044918060302734375
sg6
F3.8452301025390625
sg4
g531
sg270
I173
sg2
I01
sg3
I173
sa(dp784
g7
F1.2553396224975586
sg268
F0.005051136016845703
sg6
F0.24959397315979004
sg4
g531
sg270
I11
sg2
I01
sg3
I19
sa(dp785
g7
F1.268799066543579
sg268
F0.0005431175231933594
sg6
F11.152981042861938
sg4
g531
sg270
I508
sg2
I01
sg3
I508
sa(dp786
g7
F1.8604061603546143
sg268
F0.00046706199645996094
sg6
F3.3156089782714844
sg4
g531
sg270
I151
sg2
I01
sg3
I151
sa(dp787
g7
F1.3910188674926758
sg268
F0.0004780292510986328
sg6
F2.7328410148620605
sg4
g531
sg270
I118
sg2
I01
sg3
I118
sa(dp788
g7
F1.5530259609222412
sg268
F0.0004730224609375
sg6
F5.871783018112183
sg4
g531
sg270
I267
sg2
I01
sg3
I267
sa(dp789
g7
F2.2142410278320312
sg268
F0.010178327560424805
sg6
F0.2192549705505371
sg4
g531
sg270
I10
sg2
I01
sg3
I28
sa(lp790
(dp791
g7
F2.7198879718780518
sg268
F0.0003590583801269531
sg6
F7.297456979751587
sg4
S'nn+cegis'
p792
sg270
I304
sS'nn_time'
p793
F3.3736929893493652
sg2
I01
sg3
I304
sa(dp794
g7
F1.4251251220703125
sg268
F0.00039505958557128906
sg6
F6.05744194984436
sg4
g792
sg270
I252
sg793
F2.3775410652160645
sg2
I01
sg3
I252
sa(dp795
g7
F2.51396107673645
sg268
F0.00045800209045410156
sg6
F5.931303024291992
sg4
g792
sg270
I234
sg793
F2.290059804916382
sg2
I01
sg3
I234
sa(dp796
g7
F1.7330451011657715
sg268
F0.0004031658172607422
sg6
F6.376070976257324
sg4
g792
sg270
I245
sg793
F2.271759033203125
sg2
I01
sg3
I245
sa(dp797
g7
F0.6537868976593018
sg268
F0.0003979206085205078
sg6
F7.540335178375244
sg4
g792
sg270
I296
sg793
F3.0377790927886963
sg2
I01
sg3
I296
sa(dp798
g7
F28.193573713302612
sg268
F0.0011301040649414062
sg6
F7.301106929779053
sg4
g792
sg270
I294
sg793
F3.223057985305786
sg2
I01
sg3
I295
sa(dp799
g7
F9.20365309715271
sg268
F0.0005400180816650391
sg6
F7.547590017318726
sg4
g792
sg270
I301
sg793
F3.3319079875946045
sg2
I01
sg3
I301
sa(dp800
g7
F1.8887550830841064
sg268
F0.0004088878631591797
sg6
F6.069905042648315
sg4
g792
sg270
I252
sg793
F2.37648606300354
sg2
I01
sg3
I252
sa(dp801
g7
F5.895655155181885
sg268
F0.00045299530029296875
sg6
F4.294939994812012
sg4
g792
sg270
I170
sg793
F1.3960509300231934
sg2
I01
sg3
I170
sa(dp802
g7
F0.718256950378418
sg268
F0.0004899501800537109
sg6
F9.142709016799927
sg4
g792
sg270
I360
sg793
F4.245154142379761
sg2
I01
sg3
I360
sa(dp803
g7
F1.083739995956421
sg268
F0.00048089027404785156
sg6
F6.010913133621216
sg4
g792
sg270
I240
sg793
F2.3989198207855225
sg2
I01
sg3
I240
sa(dp804
g7
F0.5961599349975586
sg268
F0.0004839897155761719
sg6
F5.039564847946167
sg4
g792
sg270
I200
sg793
F1.8304100036621094
sg2
I01
sg3
I200
sa(dp805
g7
F2.2770259380340576
sg268
F0.0004258155822753906
sg6
F4.297218084335327
sg4
g792
sg270
I170
sg793
F1.422226905822754
sg2
I01
sg3
I170
sa(dp806
g7
F56.41391468048096
sg268
F0.0009148120880126953
sg6
F3.4888229370117188
sg4
g792
sg270
I140
sg793
F1.0382359027862549
sg2
I01
sg3
I141
sa(dp807
g7
F3.1856651306152344
sg268
F0.0006129741668701172
sg6
F11.819744110107422
sg4
g792
sg270
I473
sg793
F6.5561418533325195
sg2
I01
sg3
I473
sa(dp808
g7
F5.408827781677246
sg268
F0.0013971328735351562
sg6
F8.414249897003174
sg4
g792
sg270
I336
sg793
F4.038574934005737
sg2
I01
sg3
I337
sa(dp809
g7
F1.5973279476165771
sg268
F0.0004830360412597656
sg6
F7.666216850280762
sg4
g792
sg270
I296
sg793
F3.316532850265503
sg2
I01
sg3
I296
sa(dp810
g7
F1.2945740222930908
sg268
F0.0008919239044189453
sg6
F4.904368877410889
sg4
g792
sg270
I195
sg793
F1.744365930557251
sg2
I01
sg3
I195
sa(dp811
g7
F8.740850925445557
sg268
F0.0004620552062988281
sg6
F5.607059001922607
sg4
g792
sg270
I222
sg793
F2.1531989574432373
sg2
I01
sg3
I222
sa(dp812
g7
F4.305638074874878
sg268
F0.00047206878662109375
sg6
F3.634675979614258
sg4
g792
sg270
I144
sg793
F1.1133050918579102
sg2
I01
sg3
I144
sa(dp813
g7
F0.4430360794067383
sg268
F0.0005550384521484375
sg6
F6.233351945877075
sg4
g792
sg270
I246
sg793
F2.5233678817749023
sg2
I01
sg3
I246
sa(dp814
g7
F3.935605049133301
sg268
F0.0005161762237548828
sg6
F5.729912996292114
sg4
g792
sg270
I228
sg793
F2.172185182571411
sg2
I01
sg3
I228
sa(dp815
g7
F2.3025851249694824
sg268
F0.0005459785461425781
sg6
F8.15321397781372
sg4
g792
sg270
I320
sg793
F3.6289548873901367
sg2
I01
sg3
I320
sa(dp816
g7
F2.7232789993286133
sg268
F0.0004990100860595703
sg6
F6.828330039978027
sg4
g792
sg270
I273
sg793
F2.892554998397827
sg2
I01
sg3
I273
sa(dp817
g7
F195.39205241203308
sg268
F0.024245262145996094
sg6
F0.8120391368865967
sg4
g792
sg270
I32
sg793
F0.1415081024169922
sg2
I01
sg3
I82
sa(dp818
g7
F1.7492761611938477
sg268
F0.0005578994750976562
sg6
F6.181287050247192
sg4
g792
sg270
I246
sg793
F2.5119740962982178
sg2
I01
sg3
I246
sa(dp819
g7
F9.178897142410278
sg268
F0.0004868507385253906
sg6
F6.706791162490845
sg4
g792
sg270
I266
sg793
F2.708014965057373
sg2
I01
sg3
I266
sa(dp820
g7
F2.0812110900878906
sg268
F0.0004680156707763672
sg6
F5.462134122848511
sg4
g792
sg270
I222
sg793
F2.048574924468994
sg2
I01
sg3
I222
sa(dp821
g7
F2.087977170944214
sg268
F0.0004699230194091797
sg6
F3.263667106628418
sg4
g792
sg270
I132
sg793
F0.9572439193725586
sg2
I01
sg3
I132
sa(dp822
g7
F1.248344898223877
sg268
F0.0004839897155761719
sg6
F6.701154947280884
sg4
g792
sg270
I266
sg793
F2.685976028442383
sg2
I01
sg3
I266
sa(dp823
g7
F13.289071083068848
sg268
F0.0018889904022216797
sg6
F4.59294319152832
sg4
g792
sg270
I185
sg793
F1.5677452087402344
sg2
I01
sg3
I187
sa(dp824
g7
F0.8385698795318604
sg268
F0.0005691051483154297
sg6
F10.408788919448853
sg4
g792
sg270
I420
sg793
F5.422177076339722
sg2
I01
sg3
I420
sa(dp825
g7
F7.135666131973267
sg268
F0.0006499290466308594
sg6
F4.237723112106323
sg4
g792
sg270
I170
sg793
F1.3627591133117676
sg2
I01
sg3
I170
sa(dp826
g7
F9.997948169708252
sg268
F0.0004971027374267578
sg6
F6.385413885116577
sg4
g792
sg270
I259
sg793
F2.557572841644287
sg2
I01
sg3
I259
sa(dp827
g7
F1.3131790161132812
sg268
F0.000553131103515625
sg6
F6.1918721199035645
sg4
g792
sg270
I252
sg793
F2.565593957901001
sg2
I01
sg3
I252
sa(dp828
g7
F2.4567160606384277
sg268
F0.0004661083221435547
sg6
F6.693270921707153
sg4
g792
sg270
I266
sg793
F2.711677074432373
sg2
I01
sg3
I266
sa(dp829
g7
F26.20755624771118
sg268
F0.0011529922485351562
sg6
F6.1848649978637695
sg4
g792
sg270
I252
sg793
F2.713587999343872
sg2
I01
sg3
I253
sa(dp830
g7
F1.201361894607544
sg268
F0.00042319297790527344
sg6
F3.918718099594116
sg4
g792
sg270
I165
sg793
F1.2800910472869873
sg2
I01
sg3
I165
sa(dp831
g7
F1.2010750770568848
sg268
F0.0005400180816650391
sg6
F9.191826105117798
sg4
g792
sg270
I387
sg793
F4.886674165725708
sg2
I01
sg3
I387
sa(dp832
g7
F0.8138489723205566
sg268
F0.0006091594696044922
sg6
F7.396260023117065
sg4
g792
sg270
I312
sg793
F3.5115230083465576
sg2
I01
sg3
I312
sa(dp833
g7
F10.057068824768066
sg268
F0.0005040168762207031
sg6
F6.313084840774536
sg4
g792
sg270
I266
sg793
F2.653934955596924
sg2
I01
sg3
I266
sa(dp834
g7
F1.0931370258331299
sg268
F0.0006029605865478516
sg6
F8.014893770217896
sg4
g792
sg270
I336
sg793
F3.933060884475708
sg2
I01
sg3
I336
sa(dp835
g7
F1.4265878200531006
sg268
F0.00047779083251953125
sg6
F6.065547943115234
sg4
g792
sg270
I245
sg793
F2.338994026184082
sg2
I01
sg3
I245
sa(dp836
g7
F10.118266105651855
sg268
F0.0005180835723876953
sg6
F5.692813158035278
sg4
g792
sg270
I240
sg793
F2.3237950801849365
sg2
I01
sg3
I240
sa(dp837
g7
F7.167389869689941
sg268
F0.0006611347198486328
sg6
F7.145612001419067
sg4
g792
sg270
I301
sg793
F3.3547539710998535
sg2
I01
sg3
I301
sa(dp838
g7
F1.2772889137268066
sg268
F0.0004980564117431641
sg6
F10.551761865615845
sg4
g792
sg270
I418
sg793
F5.147520065307617
sg2
I01
sg3
I418
sa(dp839
g7
F0.33256101608276367
sg268
F0.0005180835723876953
sg6
F5.725466966629028
sg4
g792
sg270
I240
sg793
F2.3545479774475098
sg2
I01
sg3
I240
sa(dp840
g7
F2.7775490283966064
sg268
F0.0005631446838378906
sg6
F7.784694194793701
sg4
g792
sg270
I328
sg793
F3.787000894546509
sg2
I01
sg3
I328
sa(dp841
g7
F1.324962854385376
sg268
F0.0005018711090087891
sg6
F6.482281923294067
sg4
g792
sg270
I273
sg793
F2.779945135116577
sg2
I01
sg3
I273
sa(dp842
g7
F2.565048933029175
sg268
F0.0005931854248046875
sg6
F5.776672840118408
sg4
g792
sg270
I234
sg793
F2.2407569885253906
sg2
I01
sg3
I234
sa(dp843
g7
F0.9002439975738525
sg268
F0.0005049705505371094
sg6
F7.53023099899292
sg4
g792
sg270
I304
sg793
F3.3153181076049805
sg2
I01
sg3
I304
sa(dp844
g7
F1.8590240478515625
sg268
F0.0005199909210205078
sg6
F5.7326250076293945
sg4
g792
sg270
I240
sg793
F2.3369810581207275
sg2
I01
sg3
I240
sa(dp845
g7
F1.7122297286987305
sg268
F0.0009987354278564453
sg6
F3.687398910522461
sg4
g792
sg270
I155
sg793
F1.1504650115966797
sg2
I01
sg3
I156
sa(dp846
g7
F12.262142896652222
sg268
F0.0005011558532714844
sg6
F7.257627010345459
sg4
g792
sg270
I304
sg793
F3.461038827896118
sg2
I01
sg3
I304
sa(dp847
g7
F14.305639266967773
sg268
F0.0022568702697753906
sg6
F6.154477119445801
sg4
g792
sg270
I258
sg793
F2.7006750106811523
sg2
I01
sg3
I261
sa(dp848
g7
F2.7096171379089355
sg268
F0.00067901611328125
sg6
F6.419022083282471
sg4
g792
sg270
I266
sg793
F2.665808916091919
sg2
I01
sg3
I266
sa(dp849
g7
F2.2255470752716064
sg268
F0.0006909370422363281
sg6
F4.758374929428101
sg4
g792
sg270
I200
sg793
F1.8756999969482422
sg2
I01
sg3
I200
sa(dp850
g7
F3.086121082305908
sg268
F0.0006248950958251953
sg6
F4.3495049476623535
sg4
g792
sg270
I180
sg793
F1.5077731609344482
sg2
I01
sg3
I180
sa(dp851
g7
F0.7758619785308838
sg268
F0.0005128383636474609
sg6
F4.097445011138916
sg4
g792
sg270
I185
sg793
F1.4442710876464844
sg2
I01
sg3
I185
sa(dp852
g7
F2.2431249618530273
sg268
F0.00046896934509277344
sg6
F4.643496990203857
sg4
g792
sg270
I210
sg793
F1.741847038269043
sg2
I01
sg3
I210
sa(dp853
g7
F1.1391069889068604
sg268
F0.0004069805145263672
sg6
F3.820844888687134
sg4
g792
sg270
I165
sg793
F1.2739808559417725
sg2
I01
sg3
I165
sa(dp854
g7
F8.312253952026367
sg268
F0.0006721019744873047
sg6
F6.826561212539673
sg4
g792
sg270
I301
sg793
F3.1127450466156006
sg2
I01
sg3
I301
sa(dp855
g7
F0.8317599296569824
sg268
F0.0004520416259765625
sg6
F4.558619022369385
sg4
g792
sg270
I204
sg793
F1.617473840713501
sg2
I01
sg3
I204
sa(dp856
g7
F0.5511438846588135
sg268
F0.0006239414215087891
sg6
F4.3786940574646
sg4
g792
sg270
I195
sg793
F1.6055829524993896
sg2
I01
sg3
I195
sa(dp857
g7
F1.3925139904022217
sg268
F0.0005118846893310547
sg6
F4.049544811248779
sg4
g792
sg270
I180
sg793
F1.3879718780517578
sg2
I01
sg3
I180
sa(dp858
g7
F1.8729379177093506
sg268
F0.0005669593811035156
sg6
F10.85037899017334
sg4
g792
sg270
I484
sg793
F6.12395715713501
sg2
I01
sg3
I484
sa(dp859
g7
F1.3981521129608154
sg268
F0.000492095947265625
sg6
F4.951630115509033
sg4
g792
sg270
I222
sg793
F1.8727271556854248
sg2
I01
sg3
I222
sa(dp860
g7
F1.4816060066223145
sg268
F0.0005428791046142578
sg6
F9.110285997390747
sg4
g792
sg270
I410
sg793
F4.845144033432007
sg2
I01
sg3
I410
sa(dp861
g7
F1.9244849681854248
sg268
F0.0005018711090087891
sg6
F6.74061393737793
sg4
g792
sg270
I304
sg793
F2.9554600715637207
sg2
I01
sg3
I304
sa(dp862
g7
F8.974452018737793
sg268
F0.0004980564117431641
sg6
F5.77726411819458
sg4
g792
sg270
I259
sg793
F2.328943967819214
sg2
I01
sg3
I259
sa(dp863
g7
F1.6076998710632324
sg268
F0.0004138946533203125
sg6
F3.7680611610412598
sg4
g792
sg270
I170
sg793
F1.2566699981689453
sg2
I01
sg3
I170
sa(dp864
g7
F3.048694133758545
sg268
F0.0005090236663818359
sg6
F4.313209056854248
sg4
g792
sg270
I180
sg793
F1.3660290241241455
sg2
I01
sg3
I180
sa(dp865
g7
F3.5394020080566406
sg268
F0.0005130767822265625
sg6
F6.745355129241943
sg4
g792
sg270
I304
sg793
F3.0239529609680176
sg2
I01
sg3
I304
sa(dp866
g7
F2.1542980670928955
sg268
F0.0005829334259033203
sg6
F9.97333812713623
sg4
g792
sg270
I451
sg793
F5.486068964004517
sg2
I01
sg3
I451
sa(dp867
g7
F0.4762740135192871
sg268
F0.0006618499755859375
sg6
F7.183261871337891
sg4
g792
sg270
I320
sg793
F3.333911895751953
sg2
I01
sg3
I320
sa(dp868
g7
F6.53056001663208
sg268
F0.0011608600616455078
sg6
F6.725820064544678
sg4
g792
sg270
I304
sg793
F3.0443880558013916
sg2
I01
sg3
I305
sa(dp869
g7
F2.9916129112243652
sg268
F0.0005161762237548828
sg6
F4.086310863494873
sg4
g792
sg270
I185
sg793
F1.450834035873413
sg2
I01
sg3
I185
sa(dp870
g7
F8.008294105529785
sg268
F0.0005300045013427734
sg6
F5.84169602394104
sg4
g792
sg270
I252
sg793
F2.2988390922546387
sg2
I01
sg3
I252
sa(dp871
g7
F3.8518991470336914
sg268
F0.0004930496215820312
sg6
F4.2025439739227295
sg4
g792
sg270
I190
sg793
F1.4605109691619873
sg2
I01
sg3
I190
sa(dp872
g7
F2.163060188293457
sg268
F0.0005559921264648438
sg6
F8.046052932739258
sg4
g792
sg270
I360
sg793
F3.922402858734131
sg2
I01
sg3
I360
sa(dp873
g7
F4.063432931900024
sg268
F0.0004889965057373047
sg6
F3.8854939937591553
sg4
g792
sg270
I175
sg793
F1.3216609954833984
sg2
I01
sg3
I175
sa(dp874
g7
F0.3681299686431885
sg268
F0.0005590915679931641
sg6
F5.436338901519775
sg4
g792
sg270
I246
sg793
F2.3045971393585205
sg2
I01
sg3
I246
sa(dp875
g7
F0.538923978805542
sg268
F0.0004379749298095703
sg6
F4.03388786315918
sg4
g792
sg270
I180
sg793
F1.398751974105835
sg2
I01
sg3
I180
sa(dp876
g7
F1.5602641105651855
sg268
F0.0005779266357421875
sg6
F6.637060165405273
sg4
g792
sg270
I301
sg793
F3.0545527935028076
sg2
I01
sg3
I301
sa(dp877
g7
F0.4722409248352051
sg268
F0.0004730224609375
sg6
F7.390577793121338
sg4
g792
sg270
I333
sg793
F3.361926794052124
sg2
I01
sg3
I333
sa(dp878
g7
F0.28798508644104004
sg268
F0.0004899501800537109
sg6
F4.527392148971558
sg4
g792
sg270
I204
sg793
F1.6269340515136719
sg2
I01
sg3
I204
sa(dp879
g7
F7.290942192077637
sg268
F0.0005719661712646484
sg6
F3.2849810123443604
sg4
g792
sg270
I148
sg793
F1.042691946029663
sg2
I01
sg3
I148
sa(dp880
g7
F41.04470705986023
sg268
F0.0009808540344238281
sg6
F3.1740520000457764
sg4
g792
sg270
I144
sg793
F0.9788470268249512
sg2
I01
sg3
I145
sa(dp881
g7
F1.081969976425171
sg268
F0.0004291534423828125
sg6
F4.36734414100647
sg4
g792
sg270
I198
sg793
F1.5881669521331787
sg2
I01
sg3
I198
sa(dp882
g7
F1.6764788627624512
sg268
F0.0005190372467041016
sg6
F5.4401350021362305
sg4
g792
sg270
I240
sg793
F2.1593940258026123
sg2
I01
sg3
I240
sa(dp883
g7
F16.514994859695435
sg268
F0.0004189014434814453
sg6
F3.87496018409729
sg4
g792
sg270
I175
sg793
F1.3172080516815186
sg2
I01
sg3
I175
sa(dp884
g7
F25.614237308502197
sg268
F0.0009198188781738281
sg6
F3.108059883117676
sg4
g792
sg270
I140
sg793
F0.939284086227417
sg2
I01
sg3
I141
sa(dp885
g7
F6.728071928024292
sg268
F0.0004191398620605469
sg6
F3.854665994644165
sg4
g792
sg270
I175
sg793
F1.2985470294952393
sg2
I01
sg3
I175
sa(dp886
g7
F81.91898322105408
sg268
F0.0008280277252197266
sg6
F2.8180160522460938
sg4
g792
sg270
I128
sg793
F0.804724931716919
sg2
I01
sg3
I129
sa(dp887
g7
F1.9392259120941162
sg268
F0.0006330013275146484
sg6
F5.311525106430054
sg4
g792
sg270
I240
sg793
F2.1627609729766846
sg2
I01
sg3
I240
sa(dp888
g7
F1.9329071044921875
sg268
F0.0004978179931640625
sg6
F4.922873020172119
sg4
g792
sg270
I222
sg793
F1.8842170238494873
sg2
I01
sg3
I222
sa(dp889
g7
F2.1721341609954834
sg268
F0.0005939006805419922
sg6
F5.042654037475586
sg4
g792
sg270
I228
sg793
F1.9505000114440918
sg2
I01
sg3
I228
sa(dp890
g7
F1.7118759155273438
sg268
F0.0004799365997314453
sg6
F7.523007154464722
sg4
g792
sg270
I333
sg793
F3.378157138824463
sg2
I01
sg3
I333
sa(dp891
g7
F8.85302996635437
sg268
F0.0005059242248535156
sg6
F6.042874097824097
sg4
g792
sg270
I273
sg793
F2.5472729206085205
sg2
I01
sg3
I273
sa(dp892
g7
F0.3920760154724121
sg268
F0.00044608116149902344
sg6
F3.975795030593872
sg4
g792
sg270
I180
sg793
F1.385148048400879
sg2
I01
sg3
I180
sa(dp893
g7
F0.2878849506378174
sg268
F0.0005960464477539062
sg6
F4.6356871128082275
sg4
g792
sg270
I210
sg793
F1.7868070602416992
sg2
I01
sg3
I210
sa(dp894
g7
F0.42453694343566895
sg268
F0.00042891502380371094
sg6
F3.0713400840759277
sg4
g792
sg270
I136
sg793
F0.9064218997955322
sg2
I01
sg3
I136
sa(dp895
g7
F2.8527069091796875
sg268
F0.0005168914794921875
sg6
F5.274166107177734
sg4
g792
sg270
I240
sg793
F2.2185590267181396
sg2
I01
sg3
I240
sa(dp896
g7
F0.7818338871002197
sg268
F0.0004661083221435547
sg6
F3.1259260177612305
sg4
g792
sg270
I140
sg793
F0.9444150924682617
sg2
I01
sg3
I140
sa(dp897
g7
F2.8488969802856445
sg268
F0.0005140304565429688
sg6
F8.392775058746338
sg4
g792
sg270
I378
sg793
F4.280488014221191
sg2
I01
sg3
I378
sa(dp898
g7
F1.5341429710388184
sg268
F0.0004401206970214844
sg6
F4.078077077865601
sg4
g792
sg270
I180
sg793
F1.380929946899414
sg2
I01
sg3
I180
sa(dp899
g7
F2.117691993713379
sg268
F0.0006020069122314453
sg6
F5.0399250984191895
sg4
g792
sg270
I228
sg793
F1.9778480529785156
sg2
I01
sg3
I228
sa(dp900
g7
F0.86326003074646
sg268
F0.0006530284881591797
sg6
F5.7071709632873535
sg4
g792
sg270
I258
sg793
F2.4646570682525635
sg2
I01
sg3
I258
sa(dp901
g7
F0.6249549388885498
sg268
F0.0005991458892822266
sg6
F6.17584490776062
sg4
g792
sg270
I280
sg793
F2.67979097366333
sg2
I01
sg3
I280
sa(dp902
g7
F1.2463879585266113
sg268
F0.0005838871002197266
sg6
F5.037074089050293
sg4
g792
sg270
I228
sg793
F1.9406139850616455
sg2
I01
sg3
I228
sa(dp903
g7
F1.2205979824066162
sg268
F0.00061798095703125
sg6
F5.427133083343506
sg4
g792
sg270
I246
sg793
F2.288794994354248
sg2
I01
sg3
I246
sa(dp904
g7
F22.282453775405884
sg268
F0.00045680999755859375
sg6
F6.210268020629883
sg4
g792
sg270
I280
sg793
F2.627948045730591
sg2
I01
sg3
I280
sa(dp905
g7
F2.8023979663848877
sg268
F0.0006868839263916016
sg6
F11.30137300491333
sg4
g792
sg270
I504
sg793
F6.213895797729492
sg2
I01
sg3
I504
sa(dp906
g7
F0.41069722175598145
sg268
F0.0004949569702148438
sg6
F4.798018932342529
sg4
g792
sg270
I216
sg793
F1.7812139987945557
sg2
I01
sg3
I216
sa(dp907
g7
F1.614253044128418
sg268
F0.0006010532379150391
sg6
F6.338973045349121
sg4
g792
sg270
I287
sg793
F2.8470351696014404
sg2
I01
sg3
I287
sa(dp908
g7
F0.8082199096679688
sg268
F0.0005779266357421875
sg6
F5.680372953414917
sg4
g792
sg270
I258
sg793
F2.447517156600952
sg2
I01
sg3
I258
sa(dp909
g7
F1.3309061527252197
sg268
F0.0005040168762207031
sg6
F5.168729066848755
sg4
g792
sg270
I234
sg793
F2.2144789695739746
sg2
I01
sg3
I234
sa(dp910
g7
F8.952697038650513
sg268
F0.0005140304565429688
sg6
F6.210227012634277
sg4
g792
sg270
I280
sg793
F2.7539939880371094
sg2
I01
sg3
I280
sa(dp911
g7
F2.050477981567383
sg268
F0.0005300045013427734
sg6
F5.570843935012817
sg4
g792
sg270
I252
sg793
F2.252501964569092
sg2
I01
sg3
I252
sa(dp912
g7
F0.5724921226501465
sg268
F0.0005769729614257812
sg6
F8.5153489112854
sg4
g792
sg270
I387
sg793
F4.466803073883057
sg2
I01
sg3
I387
sa(dp913
g7
F0.691352128982544
sg268
F0.0005171298980712891
sg6
F2.913408041000366
sg4
g792
sg270
I132
sg793
F0.8515670299530029
sg2
I01
sg3
I132
sa(dp914
g7
F33.34849214553833
sg268
F0.0010690689086914062
sg6
F5.025444030761719
sg4
g792
sg270
I228
sg793
F2.015625
sg2
I01
sg3
I229
sa(dp915
g7
F2.2568089962005615
sg268
F0.0005049705505371094
sg6
F2.187148094177246
sg4
g792
sg270
I99
sg793
F0.5705959796905518
sg2
I01
sg3
I99
sa(dp916
g7
F0.5010318756103516
sg268
F0.0005810260772705078
sg6
F5.18672513961792
sg4
g792
sg270
I234
sg793
F2.093130111694336
sg2
I01
sg3
I234
sa(dp917
g7
F1.4749009609222412
sg268
F0.0005028247833251953
sg6
F7.7854650020599365
sg4
g792
sg270
I351
sg793
F3.673058032989502
sg2
I01
sg3
I351
sa(dp918
g7
F1.478816032409668
sg268
F0.0005450248718261719
sg6
F7.931034088134766
sg4
g792
sg270
I360
sg793
F3.916313886642456
sg2
I01
sg3
I360
sa(dp919
g7
F3.8661370277404785
sg268
F0.0005040168762207031
sg6
F6.221266031265259
sg4
g792
sg270
I280
sg793
F2.6954989433288574
sg2
I01
sg3
I280
sa(dp920
g7
F0.6474270820617676
sg268
F0.0004889965057373047
sg6
F5.883609056472778
sg4
g792
sg270
I252
sg793
F2.3325958251953125
sg2
I01
sg3
I252
sa(dp921
g7
F1.297637939453125
sg268
F0.0004899501800537109
sg6
F6.9379119873046875
sg4
g792
sg270
I312
sg793
F3.137157917022705
sg2
I01
sg3
I312
sa(dp922
g7
F1.6900460720062256
sg268
F0.0005490779876708984
sg6
F6.298086166381836
sg4
g792
sg270
I273
sg793
F2.553480863571167
sg2
I01
sg3
I273
sa(dp923
g7
F1.3633460998535156
sg268
F0.0005030632019042969
sg6
F9.276824951171875
sg4
g792
sg270
I420
sg793
F4.965579986572266
sg2
I01
sg3
I420
sa(dp924
g7
F1.634977102279663
sg268
F0.0007221698760986328
sg6
F7.236877918243408
sg4
g792
sg270
I328
sg793
F3.486402988433838
sg2
I01
sg3
I328
sa(dp925
g7
F3.0796141624450684
sg268
F0.0004398822784423828
sg6
F4.74800705909729
sg4
g792
sg270
I216
sg793
F1.7925200462341309
sg2
I01
sg3
I216
sa(dp926
g7
F0.7023749351501465
sg268
F0.0004239082336425781
sg6
F3.0096678733825684
sg4
g792
sg270
I136
sg793
F0.9062120914459229
sg2
I01
sg3
I136
sa(dp927
g7
F5.860018968582153
sg268
F0.00041985511779785156
sg6
F4.780582904815674
sg4
g792
sg270
I216
sg793
F1.8126180171966553
sg2
I01
sg3
I216
sa(dp928
g7
F4.802390098571777
sg268
F0.00047206878662109375
sg6
F4.626811981201172
sg4
g792
sg270
I210
sg793
F1.7012410163879395
sg2
I01
sg3
I210
sa(dp929
g7
F34.61384987831116
sg268
F0.0010879039764404297
sg6
F5.567800045013428
sg4
g792
sg270
I252
sg793
F2.3425941467285156
sg2
I01
sg3
I253
sa(dp930
g7
F4.772536993026733
sg268
F0.0004639625549316406
sg6
F5.898792028427124
sg4
g792
sg270
I266
sg793
F2.4332780838012695
sg2
I01
sg3
I266
sa(dp931
g7
F1.356205940246582
sg268
F0.0004429817199707031
sg6
F7.344423055648804
sg4
g792
sg270
I333
sg793
F3.406850814819336
sg2
I01
sg3
I333
sa(dp932
g7
F1.3939909934997559
sg268
F0.0004649162292480469
sg6
F5.703650951385498
sg4
g792
sg270
I259
sg793
F2.369453191757202
sg2
I01
sg3
I259
sa(dp933
g7
F2.53747296333313
sg268
F0.0005140304565429688
sg6
F4.223577976226807
sg4
g792
sg270
I185
sg793
F1.4164080619812012
sg2
I01
sg3
I185
sa(dp934
g7
F7.775696039199829
sg268
F0.0004940032958984375
sg6
F5.838721990585327
sg4
g792
sg270
I266
sg793
F2.46584415435791
sg2
I01
sg3
I266
sa(dp935
g7
F1.0574190616607666
sg268
F0.0005331039428710938
sg6
F6.449794054031372
sg4
g792
sg270
I287
sg793
F2.878476142883301
sg2
I01
sg3
I287
sa(dp936
g7
F2.1552748680114746
sg268
F0.0006389617919921875
sg6
F10.545953035354614
sg4
g792
sg270
I473
sg793
F5.874165058135986
sg2
I01
sg3
I473
sa(dp937
g7
F0.6079370975494385
sg268
F0.0005450248718261719
sg6
F6.766293048858643
sg4
g792
sg270
I287
sg793
F2.8955039978027344
sg2
I01
sg3
I287
sa(dp938
g7
F2.1211740970611572
sg268
F0.0005230903625488281
sg6
F7.451288938522339
sg4
g792
sg270
I336
sg793
F3.6340010166168213
sg2
I01
sg3
I336
sa(dp939
g7
F1.125265121459961
sg268
F0.0005459785461425781
sg6
F5.165325164794922
sg4
g792
sg270
I234
sg793
F2.019749164581299
sg2
I01
sg3
I234
sa(dp940
g7
F5.070359945297241
sg268
F0.0004980564117431641
sg6
F5.040637969970703
sg4
g792
sg270
I228
sg793
F1.9527578353881836
sg2
I01
sg3
I228
sa(dp941
g7
F2.379456043243408
sg268
F0.0004570484161376953
sg6
F4.101032018661499
sg4
g792
sg270
I185
sg793
F1.4212231636047363
sg2
I01
sg3
I185
sa(dp942
g7
F0.7298059463500977
sg268
F0.000514984130859375
sg6
F5.442887783050537
sg4
g792
sg270
I246
sg793
F2.254729986190796
sg2
I01
sg3
I246
sa(dp943
g7
F1.241757869720459
sg268
F0.0005979537963867188
sg6
F8.630501985549927
sg4
g792
sg270
I390
sg793
F4.257846117019653
sg2
I01
sg3
I390
sa(dp944
g7
F21.4915030002594
sg268
F0.0004658699035644531
sg6
F5.855676889419556
sg4
g792
sg270
I259
sg793
F2.3384361267089844
sg2
I01
sg3
I259
sa(dp945
g7
F2.505981206893921
sg268
F0.0011630058288574219
sg6
F5.8795130252838135
sg4
g792
sg270
I258
sg793
F2.621917963027954
sg2
I01
sg3
I259
sa(dp946
g7
F2.374345064163208
sg268
F0.0004181861877441406
sg6
F3.796947956085205
sg4
g792
sg270
I165
sg793
F1.1639230251312256
sg2
I01
sg3
I165
sa(dp947
g7
F3.2872719764709473
sg268
F0.0005052089691162109
sg6
F5.034072160720825
sg4
g792
sg270
I228
sg793
F1.950984001159668
sg2
I01
sg3
I228
sa(dp948
g7
F0.7218120098114014
sg268
F0.0005679130554199219
sg6
F8.553859949111938
sg4
g792
sg270
I387
sg793
F4.368007183074951
sg2
I01
sg3
I387
sa(dp949
g7
F0.8358008861541748
sg268
F0.0005390644073486328
sg6
F5.859127998352051
sg4
g792
sg270
I266
sg793
F2.473855972290039
sg2
I01
sg3
I266
sa(dp950
g7
F8.13908314704895
sg268
F0.00042891502380371094
sg6
F2.930469036102295
sg4
g792
sg270
I132
sg793
F0.8605639934539795
sg2
I01
sg3
I132
sa(dp951
g7
F2.586125135421753
sg268
F0.0005280971527099609
sg6
F4.101921081542969
sg4
g792
sg270
I185
sg793
F1.4554998874664307
sg2
I01
sg3
I185
sa(dp952
g7
F0.9135541915893555
sg268
F0.0006809234619140625
sg6
F8.12965989112854
sg4
g792
sg270
I369
sg793
F4.0454628467559814
sg2
I01
sg3
I369
sa(dp953
g7
F0.8867669105529785
sg268
F0.0005459785461425781
sg6
F6.058175086975098
sg4
g792
sg270
I273
sg793
F2.5756731033325195
sg2
I01
sg3
I273
sa(dp954
g7
F3.08400297164917
sg268
F0.0006139278411865234
sg6
F4.646526098251343
sg4
g792
sg270
I210
sg793
F1.6943979263305664
sg2
I01
sg3
I210
sa(dp955
g7
F1.9789330959320068
sg268
F0.0005390644073486328
sg6
F7.204594135284424
sg4
g792
sg270
I328
sg793
F3.4631049633026123
sg2
I01
sg3
I328
sa(dp956
g7
F1.4464600086212158
sg268
F0.00046515464782714844
sg6
F3.1573660373687744
sg4
g792
sg270
I144
sg793
F0.9841959476470947
sg2
I01
sg3
I144
sa(dp957
g7
F1.9608509540557861
sg268
F0.0004699230194091797
sg6
F4.887182950973511
sg4
g792
sg270
I222
sg793
F1.8764619827270508
sg2
I01
sg3
I222
sa(dp958
g7
F1.0200259685516357
sg268
F0.0005941390991210938
sg6
F6.849242210388184
sg4
g792
sg270
I308
sg793
F3.226644992828369
sg2
I01
sg3
I308
sa(dp959
g7
F1.8188891410827637
sg268
F0.0005180835723876953
sg6
F8.091464042663574
sg4
g792
sg270
I369
sg793
F4.064639091491699
sg2
I01
sg3
I369
sa(dp960
g7
F1.3140580654144287
sg268
F0.0004680156707763672
sg6
F4.0005998611450195
sg4
g792
sg270
I180
sg793
F1.3639178276062012
sg2
I01
sg3
I180
sa(dp961
g7
F0.924832820892334
sg268
F0.000514984130859375
sg6
F4.397372007369995
sg4
g792
sg270
I200
sg793
F1.6597330570220947
sg2
I01
sg3
I200
sa(dp962
g7
F1.089721918106079
sg268
F0.0005559921264648438
sg6
F7.578012943267822
sg4
g792
sg270
I344
sg793
F3.768480062484741
sg2
I01
sg3
I344
sa(dp963
g7
F6.2510199546813965
sg268
F0.00048613548278808594
sg6
F4.622870922088623
sg4
g792
sg270
I210
sg793
F1.7485079765319824
sg2
I01
sg3
I210
sa(dp964
g7
F1.0271120071411133
sg268
F0.0005671977996826172
sg6
F4.292608976364136
sg4
g792
sg270
I195
sg793
F1.5964338779449463
sg2
I01
sg3
I195
sa(dp965
g7
F0.28327012062072754
sg268
F0.0005109310150146484
sg6
F5.894119024276733
sg4
g792
sg270
I259
sg793
F2.380815029144287
sg2
I01
sg3
I259
sa(dp966
g7
F50.77876687049866
sg268
F0.0005040168762207031
sg6
F4.910905838012695
sg4
g792
sg270
I222
sg793
F1.8578219413757324
sg2
I01
sg3
I222
sa(dp967
g7
F1.2175672054290771
sg268
F0.0004470348358154297
sg6
F4.7928550243377686
sg4
g792
sg270
I216
sg793
F1.8086130619049072
sg2
I01
sg3
I216
sa(dp968
g7
F0.43180394172668457
sg268
F0.00046706199645996094
sg6
F4.919764995574951
sg4
g792
sg270
I222
sg793
F1.8785958290100098
sg2
I01
sg3
I222
sa(dp969
g7
F0.6257410049438477
sg268
F0.0005600452423095703
sg6
F6.786153078079224
sg4
g792
sg270
I308
sg793
F3.296449899673462
sg2
I01
sg3
I308
sa(dp970
g7
F0.8224618434906006
sg268
F0.0005509853363037109
sg6
F8.778175830841064
sg4
g792
sg270
I387
sg793
F4.501307010650635
sg2
I01
sg3
I387
sa(dp971
g7
F1.940290927886963
sg268
F0.0005960464477539062
sg6
F5.685097932815552
sg4
g792
sg270
I258
sg793
F2.4691998958587646
sg2
I01
sg3
I258
sa(dp972
g7
F0.8831660747528076
sg268
F0.0005419254302978516
sg6
F7.948271036148071
sg4
g792
sg270
I360
sg793
F3.9796910285949707
sg2
I01
sg3
I360
sa(dp973
g7
F0.8699381351470947
sg268
F0.0005118846893310547
sg6
F4.0846240520477295
sg4
g792
sg270
I185
sg793
F1.4414989948272705
sg2
I01
sg3
I185
sa(dp974
g7
F1.1408190727233887
sg268
F0.00055694580078125
sg6
F5.294417142868042
sg4
g792
sg270
I240
sg793
F2.168776035308838
sg2
I01
sg3
I240
sa(dp975
g7
F1.9473941326141357
sg268
F0.0004940032958984375
sg6
F5.163866996765137
sg4
g792
sg270
I234
sg793
F2.0528321266174316
sg2
I01
sg3
I234
sa(dp976
g7
F2.7281949520111084
sg268
F0.0005421638488769531
sg6
F6.1759889125823975
sg4
g792
sg270
I280
sg793
F2.567409038543701
sg2
I01
sg3
I280
sa(dp977
g7
F10.574777841567993
sg268
F0.0004830360412597656
sg6
F5.543099880218506
sg4
g792
sg270
I252
sg793
F2.3045730590820312
sg2
I01
sg3
I252
sa(dp978
g7
F18.725677967071533
sg268
F0.0004611015319824219
sg6
F4.951696872711182
sg4
g792
sg270
I216
sg793
F1.7941770553588867
sg2
I01
sg3
I216
sa(dp979
g7
F0.3895227909088135
sg268
F0.0005810260772705078
sg6
F7.824349880218506
sg4
g792
sg270
I344
sg793
F3.8359360694885254
sg2
I01
sg3
I344
sa(dp980
g7
F7.926483869552612
sg268
F0.00046515464782714844
sg6
F5.8638739585876465
sg4
g792
sg270
I266
sg793
F2.5209801197052
sg2
I01
sg3
I266
sa(dp981
g7
F0.542395830154419
sg268
F0.0004968643188476562
sg6
F6.438470840454102
sg4
g792
sg270
I288
sg793
F2.829339027404785
sg2
I01
sg3
I288
sa(dp982
g7
F2.119197130203247
sg268
F0.0005428791046142578
sg6
F5.1386260986328125
sg4
g792
sg270
I234
sg793
F2.0990638732910156
sg2
I01
sg3
I234
sa(dp983
g7
F2.3330910205841064
sg268
F0.0005710124969482422
sg6
F5.42692494392395
sg4
g792
sg270
I246
sg793
F2.2371950149536133
sg2
I01
sg3
I246
sa(dp984
g7
F1.3359789848327637
sg268
F0.0004971027374267578
sg6
F4.899857044219971
sg4
g792
sg270
I222
sg793
F1.877511978149414
sg2
I01
sg3
I222
sa(dp985
g7
F0.5992021560668945
sg268
F0.00047588348388671875
sg6
F4.030346870422363
sg4
g792
sg270
I180
sg793
F1.377695083618164
sg2
I01
sg3
I180
sa(dp986
g7
F1.2414650917053223
sg268
F0.0005090236663818359
sg6
F6.474206924438477
sg4
g792
sg270
I294
sg793
F2.977402925491333
sg2
I01
sg3
I294
sa(dp987
g7
F2.155122995376587
sg268
F0.0004889965057373047
sg6
F3.8771049976348877
sg4
g792
sg270
I175
sg793
F1.3085498809814453
sg2
I01
sg3
I175
sa(dp988
g7
F3.7394208908081055
sg268
F0.0004858970642089844
sg6
F6.017359972000122
sg4
g792
sg270
I273
sg793
F2.659391164779663
sg2
I01
sg3
I273
sa(dp989
g7
F63.143585205078125
sg268
F0.0011551380157470703
sg6
F4.41963005065918
sg4
g792
sg270
I200
sg793
F1.6633310317993164
sg2
I01
sg3
I201
sa(dp990
g7
F7.093321800231934
sg268
F0.0009012222290039062
sg6
F2.822438955307007
sg4
g792
sg270
I128
sg793
F0.811845064163208
sg2
I01
sg3
I129
sa(dp991
g7
F1.5727908611297607
sg268
F0.0005359649658203125
sg6
F5.704556941986084
sg4
g792
sg270
I246
sg793
F2.280310869216919
sg2
I01
sg3
I246
sa(dp992
g7
F2.991276979446411
sg268
F0.0004849433898925781
sg6
F4.642426013946533
sg4
g792
sg270
I210
sg793
F1.6777849197387695
sg2
I01
sg3
I210
sa(dp993
g7
F3.48773193359375
sg268
F0.0004298686981201172
sg6
F3.775963068008423
sg4
g792
sg270
I165
sg793
F1.3088901042938232
sg2
I01
sg3
I165
sa(dp994
g7
F1.135605812072754
sg268
F0.0005848407745361328
sg6
F4.379746913909912
sg4
g792
sg270
I198
sg793
F1.547074794769287
sg2
I01
sg3
I198
sa(dp995
g7
F15.74812912940979
sg268
F0.0005059242248535156
sg6
F3.8468780517578125
sg4
g792
sg270
I175
sg793
F1.315675973892212
sg2
I01
sg3
I175
sa(dp996
g7
F1.3308768272399902
sg268
F0.0005850791931152344
sg6
F12.040739059448242
sg4
g792
sg270
I504
sg793
F6.302616119384766
sg2
I01
sg3
I504
sa(dp997
g7
F1.8887710571289062
sg268
F0.0004830360412597656
sg6
F5.836539030075073
sg4
g792
sg270
I266
sg793
F2.444934129714966
sg2
I01
sg3
I266
sa(dp998
g7
F0.9694869518280029
sg268
F0.0005099773406982422
sg6
F5.483299016952515
sg4
g792
sg270
I246
sg793
F2.248487949371338
sg2
I01
sg3
I246
sa(dp999
g7
F6.98089599609375
sg268
F0.0010251998901367188
sg6
F4.631379127502441
sg4
g792
sg270
I210
sg793
F1.7844829559326172
sg2
I01
sg3
I211
sa(dp1000
g7
F0.3161449432373047
sg268
F0.0005609989166259766
sg6
F5.265973091125488
sg4
g792
sg270
I240
sg793
F2.1807048320770264
sg2
I01
sg3
I240
sa(dp1001
g7
F2.142827033996582
sg268
F0.0005388259887695312
sg6
F6.814527988433838
sg4
g792
sg270
I308
sg793
F3.209825038909912
sg2
I01
sg3
I308
sa(dp1002
g7
F8.81152892112732
sg268
F0.0004210472106933594
sg6
F3.7503809928894043
sg4
g792
sg270
I170
sg793
F1.2343909740447998
sg2
I01
sg3
I170
sa(dp1003
g7
F15.6184561252594
sg268
F0.00043082237243652344
sg6
F4.655687093734741
sg4
g792
sg270
I210
sg793
F1.7011921405792236
sg2
I01
sg3
I210
sa(dp1004
g7
F0.5893430709838867
sg268
F0.0004470348358154297
sg6
F4.659210920333862
sg4
g792
sg270
I210
sg793
F1.726632833480835
sg2
I01
sg3
I210
sa(dp1005
g7
F0.5637941360473633
sg268
F0.00043392181396484375
sg6
F3.8547580242156982
sg4
g792
sg270
I175
sg793
F1.2948830127716064
sg2
I01
sg3
I175
sa(dp1006
g7
F2.3684589862823486
sg268
F0.0005271434783935547
sg6
F4.924349069595337
sg4
g792
sg270
I222
sg793
F1.8783869743347168
sg2
I01
sg3
I222
sa(dp1007
g7
F1.3763408660888672
sg268
F0.0005121231079101562
sg6
F9.968909978866577
sg4
g792
sg270
I451
sg793
F5.3225181102752686
sg2
I01
sg3
I451
sa(dp1008
g7
F3.2864699363708496
sg268
F0.00047016143798828125
sg6
F4.892877101898193
sg4
g792
sg270
I222
sg793
F1.8869259357452393
sg2
I01
sg3
I222
sa(dp1009
g7
F2.587430000305176
sg268
F0.00042510032653808594
sg6
F4.940835952758789
sg4
g792
sg270
I216
sg793
F1.7560489177703857
sg2
I01
sg3
I216
sa(dp1010
g7
F4.8652520179748535
sg268
F0.0005431175231933594
sg6
F6.15816593170166
sg4
g792
sg270
I280
sg793
F2.7223780155181885
sg2
I01
sg3
I280
sa(dp1011
g7
F60.43848896026611
sg268
F0.0004978179931640625
sg6
F5.261824131011963
sg4
g792
sg270
I234
sg793
F2.2210960388183594
sg2
I01
sg3
I234
sa(dp1012
g7
F0.5375971794128418
sg268
F0.0005390644073486328
sg6
F8.316884994506836
sg4
g792
sg270
I378
sg793
F4.255810022354126
sg2
I01
sg3
I378
sa(dp1013
g7
F4.553133964538574
sg268
F0.00046896934509277344
sg6
F4.777403831481934
sg4
g792
sg270
I216
sg793
F1.8200650215148926
sg2
I01
sg3
I216
sa(dp1014
g7
F1.5659370422363281
sg268
F0.0005528926849365234
sg6
F9.969266891479492
sg4
g792
sg270
I451
sg793
F5.26149582862854
sg2
I01
sg3
I451
sa(dp1015
g7
F2.152928113937378
sg268
F0.0005769729614257812
sg6
F5.582738161087036
sg4
g792
sg270
I252
sg793
F2.213592052459717
sg2
I01
sg3
I252
sa(dp1016
g7
F1.340986967086792
sg268
F0.0005099773406982422
sg6
F8.660284996032715
sg4
g792
sg270
I390
sg793
F4.243307828903198
sg2
I01
sg3
I390
sa(dp1017
g7
F0.6659820079803467
sg268
F0.00043320655822753906
sg6
F4.492371082305908
sg4
g792
sg270
I204
sg793
F1.5792019367218018
sg2
I01
sg3
I204
sa(dp1018
g7
F1.1324491500854492
sg268
F0.000453948974609375
sg6
F3.9838480949401855
sg4
g792
sg270
I180
sg793
F1.344890832901001
sg2
I01
sg3
I180
sa(dp1019
g7
F1.181197166442871
sg268
F0.0005459785461425781
sg6
F7.625119924545288
sg4
g792
sg270
I344
sg793
F3.7024788856506348
sg2
I01
sg3
I344
sa(dp1020
g7
F0.4932980537414551
sg268
F0.0005321502685546875
sg6
F7.25248908996582
sg4
g792
sg270
I328
sg793
F3.474724054336548
sg2
I01
sg3
I328
sa(dp1021
g7
F10.688398122787476
sg268
F0.0007929801940917969
sg6
F2.1024630069732666
sg4
g792
sg270
I96
sg793
F0.5336031913757324
sg2
I01
sg3
I97
sa(dp1022
g7
F0.8206820487976074
sg268
F0.0005049705505371094
sg6
F3.8903610706329346
sg4
g792
sg270
I175
sg793
F1.2882378101348877
sg2
I01
sg3
I175
sa(dp1023
g7
F0.5058062076568604
sg268
F0.0004839897155761719
sg6
F4.432464838027954
sg4
g792
sg270
I200
sg793
F1.6432690620422363
sg2
I01
sg3
I200
sa(dp1024
g7
F7.9086151123046875
sg268
F0.0005030632019042969
sg6
F8.579921960830688
sg4
g792
sg270
I390
sg793
F4.255432844161987
sg2
I01
sg3
I390
sa(dp1025
g7
F3.803234100341797
sg268
F0.0004980564117431641
sg6
F8.827587127685547
sg4
g792
sg270
I400
sg793
F4.6163129806518555
sg2
I01
sg3
I400
sa(dp1026
g7
F0.8638958930969238
sg268
F0.0004889965057373047
sg6
F2.8159918785095215
sg4
g792
sg270
I128
sg793
F0.8030178546905518
sg2
I01
sg3
I128
sa(dp1027
g7
F6.4584009647369385
sg268
F0.0004901885986328125
sg6
F5.849107027053833
sg4
g792
sg270
I266
sg793
F2.504370927810669
sg2
I01
sg3
I266
sa(dp1028
g7
F2.6553308963775635
sg268
F0.0005497932434082031
sg6
F9.712072849273682
sg4
g792
sg270
I440
sg793
F5.040905952453613
sg2
I01
sg3
I440
sa(dp1029
g7
F2.6092529296875
sg268
F0.0005488395690917969
sg6
F4.620541095733643
sg4
g792
sg270
I210
sg793
F1.7019147872924805
sg2
I01
sg3
I210
sa(dp1030
g7
F4.459743022918701
sg268
F0.0005929470062255859
sg6
F4.8883020877838135
sg4
g792
sg270
I222
sg793
F1.88419508934021
sg2
I01
sg3
I222
sa(dp1031
g7
F0.8876628875732422
sg268
F0.0005919933319091797
sg6
F8.301821947097778
sg4
g792
sg270
I378
sg793
F4.3991379737854
sg2
I01
sg3
I378
sa(dp1032
g7
F4.032975196838379
sg268
F0.0004949569702148438
sg6
F6.512609004974365
sg4
g792
sg270
I296
sg793
F2.86049485206604
sg2
I01
sg3
I296
sa(dp1033
g7
F66.98483109474182
sg268
F0.00043702125549316406
sg6
F3.614138126373291
sg4
g792
sg270
I165
sg793
F1.2017359733581543
sg2
I01
sg3
I165
sa(dp1034
g7
F2.0692169666290283
sg268
F0.0006530284881591797
sg6
F7.234783887863159
sg4
g792
sg270
I328
sg793
F3.420862913131714
sg2
I01
sg3
I328
sa(dp1035
g7
F9.00783920288086
sg268
F0.0011339187622070312
sg6
F10.432064056396484
sg4
g792
sg270
I473
sg793
F5.8957109451293945
sg2
I01
sg3
I474
sa(dp1036
g7
F11.814718961715698
sg268
F0.0005440711975097656
sg6
F7.327629804611206
sg4
g792
sg270
I333
sg793
F3.394408941268921
sg2
I01
sg3
I333
sa(dp1037
g7
F5.244720935821533
sg268
F0.0004658699035644531
sg6
F5.546279191970825
sg4
g792
sg270
I252
sg793
F2.29158091545105
sg2
I01
sg3
I252
sa(dp1038
g7
F5.0953099727630615
sg268
F0.0011250972747802734
sg6
F4.51987099647522
sg4
g792
sg270
I205
sg793
F1.7036340236663818
sg2
I01
sg3
I206
sa(dp1039
g7
F0.6066257953643799
sg268
F0.0005679130554199219
sg6
F5.184794902801514
sg4
g792
sg270
I234
sg793
F2.0769460201263428
sg2
I01
sg3
I234
sa(dp1040
g7
F1.6053550243377686
sg268
F0.0004589557647705078
sg6
F6.174890041351318
sg4
g792
sg270
I280
sg793
F2.5896828174591064
sg2
I01
sg3
I280
sa(dp1041
g7
F2.0707719326019287
sg268
F0.0004639625549316406
sg6
F5.075243949890137
sg4
g792
sg270
I228
sg793
F1.9796929359436035
sg2
I01
sg3
I228
sa(dp1042
g7
F2.5393548011779785
sg268
F0.0004508495330810547
sg6
F2.1174519062042236
sg4
g792
sg270
I96
sg793
F0.5332319736480713
sg2
I01
sg3
I96
sa(dp1043
g7
F12.528465032577515
sg268
F0.0004999637603759766
sg6
F7.070669889450073
sg4
g792
sg270
I320
sg793
F3.2599070072174072
sg2
I01
sg3
I320
sa(dp1044
g7
F0.530242919921875
sg268
F0.0005390644073486328
sg6
F7.605625152587891
sg4
g792
sg270
I344
sg793
F3.7086291313171387
sg2
I01
sg3
I344
sa(dp1045
g7
F4.174890041351318
sg268
F0.0004410743713378906
sg6
F4.744778156280518
sg4
g792
sg270
I216
sg793
F1.79842209815979
sg2
I01
sg3
I216
sa(dp1046
g7
F1.1234710216522217
sg268
F0.0005011558532714844
sg6
F4.530869007110596
sg4
g792
sg270
I205
sg793
F1.7602829933166504
sg2
I01
sg3
I205
sa(dp1047
g7
F6.969149112701416
sg268
F0.0005819797515869141
sg6
F9.518110990524292
sg4
g792
sg270
I430
sg793
F5.137396812438965
sg2
I01
sg3
I430
sa(dp1048
g7
F3.4866209030151367
sg268
F0.0005099773406982422
sg6
F5.685121059417725
sg4
g792
sg270
I259
sg793
F2.365673065185547
sg2
I01
sg3
I259
sa(dp1049
g7
F0.8157720565795898
sg268
F0.00045800209045410156
sg6
F3.4656450748443604
sg4
g792
sg270
I148
sg793
F1.132720947265625
sg2
I01
sg3
I148
sa(dp1050
g7
F8.913846969604492
sg268
F0.0005311965942382812
sg6
F5.86131477355957
sg4
g792
sg270
I266
sg793
F2.493093967437744
sg2
I01
sg3
I266
sa(dp1051
g7
F2.5066380500793457
sg268
F0.0010149478912353516
sg6
F3.3128910064697266
sg4
g792
sg270
I152
sg793
F1.0763309001922607
sg2
I01
sg3
I153
satp1052
.